   1              		.syntax unified
   2              		.cpu cortex-m4
   3              		.fpu softvfp
   4              		.eabi_attribute 20, 1
   5              		.eabi_attribute 21, 1
   6              		.eabi_attribute 23, 3
   7              		.eabi_attribute 24, 1
   8              		.eabi_attribute 25, 1
   9              		.eabi_attribute 26, 1
  10              		.eabi_attribute 30, 6
  11              		.eabi_attribute 34, 1
  12              		.eabi_attribute 18, 4
  13              		.thumb
  14              		.file	"stm32f4xx_dac.c"
  15              		.text
  16              	.Ltext0:
  17              		.cfi_sections	.debug_frame
  18              		.align	2
  19              		.global	DAC_DeInit
  20              		.thumb
  21              		.thumb_func
  23              	DAC_DeInit:
  24              	.LFB110:
  25              		.file 1 "../Libraries/STM32F4xx_StdPeriph_Driver/src/stm32f4xx_dac.c"
   1:../Libraries/STM32F4xx_StdPeriph_Driver/src/stm32f4xx_dac.c **** /**
   2:../Libraries/STM32F4xx_StdPeriph_Driver/src/stm32f4xx_dac.c ****   ******************************************************************************
   3:../Libraries/STM32F4xx_StdPeriph_Driver/src/stm32f4xx_dac.c ****   * @file    stm32f4xx_dac.c
   4:../Libraries/STM32F4xx_StdPeriph_Driver/src/stm32f4xx_dac.c ****   * @author  MCD Application Team
   5:../Libraries/STM32F4xx_StdPeriph_Driver/src/stm32f4xx_dac.c ****   * @version V1.0.0RC1
   6:../Libraries/STM32F4xx_StdPeriph_Driver/src/stm32f4xx_dac.c ****   * @date    25-August-2011
   7:../Libraries/STM32F4xx_StdPeriph_Driver/src/stm32f4xx_dac.c ****    * @brief   This file provides firmware functions to manage the following 
   8:../Libraries/STM32F4xx_StdPeriph_Driver/src/stm32f4xx_dac.c ****   *          functionalities of the Digital-to-Analog Converter (DAC) peripheral: 
   9:../Libraries/STM32F4xx_StdPeriph_Driver/src/stm32f4xx_dac.c ****   *           - DAC channels configuration: trigger, output buffer, data format
  10:../Libraries/STM32F4xx_StdPeriph_Driver/src/stm32f4xx_dac.c ****   *           - DMA management      
  11:../Libraries/STM32F4xx_StdPeriph_Driver/src/stm32f4xx_dac.c ****   *           - Interrupts and flags management
  12:../Libraries/STM32F4xx_StdPeriph_Driver/src/stm32f4xx_dac.c ****   *
  13:../Libraries/STM32F4xx_StdPeriph_Driver/src/stm32f4xx_dac.c ****   *  @verbatim
  14:../Libraries/STM32F4xx_StdPeriph_Driver/src/stm32f4xx_dac.c ****   *    
  15:../Libraries/STM32F4xx_StdPeriph_Driver/src/stm32f4xx_dac.c ****   *          ===================================================================
  16:../Libraries/STM32F4xx_StdPeriph_Driver/src/stm32f4xx_dac.c ****   *                             DAC Peripheral features
  17:../Libraries/STM32F4xx_StdPeriph_Driver/src/stm32f4xx_dac.c ****   *          ===================================================================
  18:../Libraries/STM32F4xx_StdPeriph_Driver/src/stm32f4xx_dac.c ****   *          
  19:../Libraries/STM32F4xx_StdPeriph_Driver/src/stm32f4xx_dac.c ****   *          DAC Channels
  20:../Libraries/STM32F4xx_StdPeriph_Driver/src/stm32f4xx_dac.c ****   *          =============  
  21:../Libraries/STM32F4xx_StdPeriph_Driver/src/stm32f4xx_dac.c ****   *          The device integrates two 12-bit Digital Analog Converters that can 
  22:../Libraries/STM32F4xx_StdPeriph_Driver/src/stm32f4xx_dac.c ****   *          be used independently or simultaneously (dual mode):
  23:../Libraries/STM32F4xx_StdPeriph_Driver/src/stm32f4xx_dac.c ****   *            1- DAC channel1 with DAC_OUT1 (PA4) as output
  24:../Libraries/STM32F4xx_StdPeriph_Driver/src/stm32f4xx_dac.c ****   *            1- DAC channel2 with DAC_OUT2 (PA5) as output
  25:../Libraries/STM32F4xx_StdPeriph_Driver/src/stm32f4xx_dac.c ****   *
  26:../Libraries/STM32F4xx_StdPeriph_Driver/src/stm32f4xx_dac.c ****   *          DAC Triggers
  27:../Libraries/STM32F4xx_StdPeriph_Driver/src/stm32f4xx_dac.c ****   *          =============
  28:../Libraries/STM32F4xx_StdPeriph_Driver/src/stm32f4xx_dac.c ****   *          Digital to Analog conversion can be non-triggered using DAC_Trigger_None
  29:../Libraries/STM32F4xx_StdPeriph_Driver/src/stm32f4xx_dac.c ****   *          and DAC_OUT1/DAC_OUT2 is available once writing to DHRx register 
  30:../Libraries/STM32F4xx_StdPeriph_Driver/src/stm32f4xx_dac.c ****   *          using DAC_SetChannel1Data() / DAC_SetChannel2Data() functions.
  31:../Libraries/STM32F4xx_StdPeriph_Driver/src/stm32f4xx_dac.c ****   *   
  32:../Libraries/STM32F4xx_StdPeriph_Driver/src/stm32f4xx_dac.c ****   *         Digital to Analog conversion can be triggered by:
  33:../Libraries/STM32F4xx_StdPeriph_Driver/src/stm32f4xx_dac.c ****   *             1- External event: EXTI Line 9 (any GPIOx_Pin9) using DAC_Trigger_Ext_IT9.
  34:../Libraries/STM32F4xx_StdPeriph_Driver/src/stm32f4xx_dac.c ****   *                The used pin (GPIOx_Pin9) must be configured in input mode.
  35:../Libraries/STM32F4xx_StdPeriph_Driver/src/stm32f4xx_dac.c ****   *
  36:../Libraries/STM32F4xx_StdPeriph_Driver/src/stm32f4xx_dac.c ****   *             2- Timers TRGO: TIM2, TIM4, TIM5, TIM6, TIM7 and TIM8 
  37:../Libraries/STM32F4xx_StdPeriph_Driver/src/stm32f4xx_dac.c ****   *                (DAC_Trigger_T2_TRGO, DAC_Trigger_T4_TRGO...)
  38:../Libraries/STM32F4xx_StdPeriph_Driver/src/stm32f4xx_dac.c ****   *                The timer TRGO event should be selected using TIM_SelectOutputTrigger()
  39:../Libraries/STM32F4xx_StdPeriph_Driver/src/stm32f4xx_dac.c ****   *
  40:../Libraries/STM32F4xx_StdPeriph_Driver/src/stm32f4xx_dac.c ****   *             3- Software using DAC_Trigger_Software
  41:../Libraries/STM32F4xx_StdPeriph_Driver/src/stm32f4xx_dac.c ****   *
  42:../Libraries/STM32F4xx_StdPeriph_Driver/src/stm32f4xx_dac.c ****   *          DAC Buffer mode feature
  43:../Libraries/STM32F4xx_StdPeriph_Driver/src/stm32f4xx_dac.c ****   *          ========================  
  44:../Libraries/STM32F4xx_StdPeriph_Driver/src/stm32f4xx_dac.c ****   *          Each DAC channel integrates an output buffer that can be used to 
  45:../Libraries/STM32F4xx_StdPeriph_Driver/src/stm32f4xx_dac.c ****   *          reduce the output impedance, and to drive external loads directly
  46:../Libraries/STM32F4xx_StdPeriph_Driver/src/stm32f4xx_dac.c ****   *          without having to add an external operational amplifier.
  47:../Libraries/STM32F4xx_StdPeriph_Driver/src/stm32f4xx_dac.c ****   *          To enable, the output buffer use  
  48:../Libraries/STM32F4xx_StdPeriph_Driver/src/stm32f4xx_dac.c ****   *              DAC_InitStructure.DAC_OutputBuffer = DAC_OutputBuffer_Enable;
  49:../Libraries/STM32F4xx_StdPeriph_Driver/src/stm32f4xx_dac.c ****   *          
  50:../Libraries/STM32F4xx_StdPeriph_Driver/src/stm32f4xx_dac.c ****   *          Refer to the device datasheet for more details about output 
  51:../Libraries/STM32F4xx_StdPeriph_Driver/src/stm32f4xx_dac.c ****   *          impedance value with and without output buffer.
  52:../Libraries/STM32F4xx_StdPeriph_Driver/src/stm32f4xx_dac.c ****   *          
  53:../Libraries/STM32F4xx_StdPeriph_Driver/src/stm32f4xx_dac.c ****   *          DAC wave generation feature
  54:../Libraries/STM32F4xx_StdPeriph_Driver/src/stm32f4xx_dac.c ****   *          =============================      
  55:../Libraries/STM32F4xx_StdPeriph_Driver/src/stm32f4xx_dac.c ****   *          Both DAC channels can be used to generate
  56:../Libraries/STM32F4xx_StdPeriph_Driver/src/stm32f4xx_dac.c ****   *             1- Noise wave using DAC_WaveGeneration_Noise
  57:../Libraries/STM32F4xx_StdPeriph_Driver/src/stm32f4xx_dac.c ****   *             2- Triangle wave using DAC_WaveGeneration_Triangle
  58:../Libraries/STM32F4xx_StdPeriph_Driver/src/stm32f4xx_dac.c ****   *        
  59:../Libraries/STM32F4xx_StdPeriph_Driver/src/stm32f4xx_dac.c ****   *          Wave generation can be disabled using DAC_WaveGeneration_None
  60:../Libraries/STM32F4xx_StdPeriph_Driver/src/stm32f4xx_dac.c ****   *
  61:../Libraries/STM32F4xx_StdPeriph_Driver/src/stm32f4xx_dac.c ****   *          DAC data format
  62:../Libraries/STM32F4xx_StdPeriph_Driver/src/stm32f4xx_dac.c ****   *          ================   
  63:../Libraries/STM32F4xx_StdPeriph_Driver/src/stm32f4xx_dac.c ****   *          The DAC data format can be:
  64:../Libraries/STM32F4xx_StdPeriph_Driver/src/stm32f4xx_dac.c ****   *             1- 8-bit right alignment using DAC_Align_8b_R
  65:../Libraries/STM32F4xx_StdPeriph_Driver/src/stm32f4xx_dac.c ****   *             2- 12-bit left alignment using DAC_Align_12b_L
  66:../Libraries/STM32F4xx_StdPeriph_Driver/src/stm32f4xx_dac.c ****   *             3- 12-bit right alignment using DAC_Align_12b_R
  67:../Libraries/STM32F4xx_StdPeriph_Driver/src/stm32f4xx_dac.c ****   *
  68:../Libraries/STM32F4xx_StdPeriph_Driver/src/stm32f4xx_dac.c ****   *          DAC data value to voltage correspondence  
  69:../Libraries/STM32F4xx_StdPeriph_Driver/src/stm32f4xx_dac.c ****   *          ========================================  
  70:../Libraries/STM32F4xx_StdPeriph_Driver/src/stm32f4xx_dac.c ****   *          The analog output voltage on each DAC channel pin is determined
  71:../Libraries/STM32F4xx_StdPeriph_Driver/src/stm32f4xx_dac.c ****   *          by the following equation: 
  72:../Libraries/STM32F4xx_StdPeriph_Driver/src/stm32f4xx_dac.c ****   *          DAC_OUTx = VREF+ * DOR / 4095
  73:../Libraries/STM32F4xx_StdPeriph_Driver/src/stm32f4xx_dac.c ****   *          with  DOR is the Data Output Register
  74:../Libraries/STM32F4xx_StdPeriph_Driver/src/stm32f4xx_dac.c ****   *                VEF+ is the input voltage reference (refer to the device datasheet)
  75:../Libraries/STM32F4xx_StdPeriph_Driver/src/stm32f4xx_dac.c ****   *          e.g. To set DAC_OUT1 to 0.7V, use
  76:../Libraries/STM32F4xx_StdPeriph_Driver/src/stm32f4xx_dac.c ****   *            DAC_SetChannel1Data(DAC_Align_12b_R, 868);
  77:../Libraries/STM32F4xx_StdPeriph_Driver/src/stm32f4xx_dac.c ****   *          Assuming that VREF+ = 3.3V, DAC_OUT1 = (3.3 * 868) / 4095 = 0.7V
  78:../Libraries/STM32F4xx_StdPeriph_Driver/src/stm32f4xx_dac.c ****   *
  79:../Libraries/STM32F4xx_StdPeriph_Driver/src/stm32f4xx_dac.c ****   *          DMA requests 
  80:../Libraries/STM32F4xx_StdPeriph_Driver/src/stm32f4xx_dac.c ****   *          =============    
  81:../Libraries/STM32F4xx_StdPeriph_Driver/src/stm32f4xx_dac.c ****   *          A DMA1 request can be generated when an external trigger (but not
  82:../Libraries/STM32F4xx_StdPeriph_Driver/src/stm32f4xx_dac.c ****   *          a software trigger) occurs if DMA1 requests are enabled using
  83:../Libraries/STM32F4xx_StdPeriph_Driver/src/stm32f4xx_dac.c ****   *          DAC_DMACmd()
  84:../Libraries/STM32F4xx_StdPeriph_Driver/src/stm32f4xx_dac.c ****   *          DMA1 requests are mapped as following:
  85:../Libraries/STM32F4xx_StdPeriph_Driver/src/stm32f4xx_dac.c ****   *             1- DAC channel1 : mapped on DMA1 Stream5 channel7 which must be 
  86:../Libraries/STM32F4xx_StdPeriph_Driver/src/stm32f4xx_dac.c ****   *                               already configured
  87:../Libraries/STM32F4xx_StdPeriph_Driver/src/stm32f4xx_dac.c ****   *             2- DAC channel2 : mapped on DMA1 Stream6 channel7 which must be 
  88:../Libraries/STM32F4xx_StdPeriph_Driver/src/stm32f4xx_dac.c ****   *                               already configured
  89:../Libraries/STM32F4xx_StdPeriph_Driver/src/stm32f4xx_dac.c ****   *
  90:../Libraries/STM32F4xx_StdPeriph_Driver/src/stm32f4xx_dac.c ****   *          ===================================================================      
  91:../Libraries/STM32F4xx_StdPeriph_Driver/src/stm32f4xx_dac.c ****   *                              How to use this driver 
  92:../Libraries/STM32F4xx_StdPeriph_Driver/src/stm32f4xx_dac.c ****   *          ===================================================================          
  93:../Libraries/STM32F4xx_StdPeriph_Driver/src/stm32f4xx_dac.c ****   *            - DAC APB clock must be enabled to get write access to DAC
  94:../Libraries/STM32F4xx_StdPeriph_Driver/src/stm32f4xx_dac.c ****   *              registers using
  95:../Libraries/STM32F4xx_StdPeriph_Driver/src/stm32f4xx_dac.c ****   *              RCC_APB1PeriphClockCmd(RCC_APB1Periph_DAC, ENABLE)
  96:../Libraries/STM32F4xx_StdPeriph_Driver/src/stm32f4xx_dac.c ****   *            - Configure DAC_OUTx (DAC_OUT1: PA4, DAC_OUT2: PA5) in analog mode.
  97:../Libraries/STM32F4xx_StdPeriph_Driver/src/stm32f4xx_dac.c ****   *            - Configure the DAC channel using DAC_Init() function
  98:../Libraries/STM32F4xx_StdPeriph_Driver/src/stm32f4xx_dac.c ****   *            - Enable the DAC channel using DAC_Cmd() function
  99:../Libraries/STM32F4xx_StdPeriph_Driver/src/stm32f4xx_dac.c ****   * 
 100:../Libraries/STM32F4xx_StdPeriph_Driver/src/stm32f4xx_dac.c ****   *  @endverbatim
 101:../Libraries/STM32F4xx_StdPeriph_Driver/src/stm32f4xx_dac.c ****   *    
 102:../Libraries/STM32F4xx_StdPeriph_Driver/src/stm32f4xx_dac.c ****   ******************************************************************************
 103:../Libraries/STM32F4xx_StdPeriph_Driver/src/stm32f4xx_dac.c ****   * @attention
 104:../Libraries/STM32F4xx_StdPeriph_Driver/src/stm32f4xx_dac.c ****   *
 105:../Libraries/STM32F4xx_StdPeriph_Driver/src/stm32f4xx_dac.c ****   * THE PRESENT FIRMWARE WHICH IS FOR GUIDANCE ONLY AIMS AT PROVIDING CUSTOMERS
 106:../Libraries/STM32F4xx_StdPeriph_Driver/src/stm32f4xx_dac.c ****   * WITH CODING INFORMATION REGARDING THEIR PRODUCTS IN ORDER FOR THEM TO SAVE
 107:../Libraries/STM32F4xx_StdPeriph_Driver/src/stm32f4xx_dac.c ****   * TIME. AS A RESULT, STMICROELECTRONICS SHALL NOT BE HELD LIABLE FOR ANY
 108:../Libraries/STM32F4xx_StdPeriph_Driver/src/stm32f4xx_dac.c ****   * DIRECT, INDIRECT OR CONSEQUENTIAL DAMAGES WITH RESPECT TO ANY CLAIMS ARISING
 109:../Libraries/STM32F4xx_StdPeriph_Driver/src/stm32f4xx_dac.c ****   * FROM THE CONTENT OF SUCH FIRMWARE AND/OR THE USE MADE BY CUSTOMERS OF THE
 110:../Libraries/STM32F4xx_StdPeriph_Driver/src/stm32f4xx_dac.c ****   * CODING INFORMATION CONTAINED HEREIN IN CONNECTION WITH THEIR PRODUCTS.
 111:../Libraries/STM32F4xx_StdPeriph_Driver/src/stm32f4xx_dac.c ****   *
 112:../Libraries/STM32F4xx_StdPeriph_Driver/src/stm32f4xx_dac.c ****   * <h2><center>&copy; COPYRIGHT 2011 STMicroelectronics</center></h2>
 113:../Libraries/STM32F4xx_StdPeriph_Driver/src/stm32f4xx_dac.c ****   ******************************************************************************  
 114:../Libraries/STM32F4xx_StdPeriph_Driver/src/stm32f4xx_dac.c ****   */ 
 115:../Libraries/STM32F4xx_StdPeriph_Driver/src/stm32f4xx_dac.c **** 
 116:../Libraries/STM32F4xx_StdPeriph_Driver/src/stm32f4xx_dac.c **** 
 117:../Libraries/STM32F4xx_StdPeriph_Driver/src/stm32f4xx_dac.c **** /* Includes ------------------------------------------------------------------*/
 118:../Libraries/STM32F4xx_StdPeriph_Driver/src/stm32f4xx_dac.c **** #include "stm32f4xx_dac.h"
 119:../Libraries/STM32F4xx_StdPeriph_Driver/src/stm32f4xx_dac.c **** #include "stm32f4xx_rcc.h"
 120:../Libraries/STM32F4xx_StdPeriph_Driver/src/stm32f4xx_dac.c **** 
 121:../Libraries/STM32F4xx_StdPeriph_Driver/src/stm32f4xx_dac.c **** /** @addtogroup STM32F4xx_StdPeriph_Driver
 122:../Libraries/STM32F4xx_StdPeriph_Driver/src/stm32f4xx_dac.c ****   * @{
 123:../Libraries/STM32F4xx_StdPeriph_Driver/src/stm32f4xx_dac.c ****   */
 124:../Libraries/STM32F4xx_StdPeriph_Driver/src/stm32f4xx_dac.c **** 
 125:../Libraries/STM32F4xx_StdPeriph_Driver/src/stm32f4xx_dac.c **** /** @defgroup DAC 
 126:../Libraries/STM32F4xx_StdPeriph_Driver/src/stm32f4xx_dac.c ****   * @brief DAC driver modules
 127:../Libraries/STM32F4xx_StdPeriph_Driver/src/stm32f4xx_dac.c ****   * @{
 128:../Libraries/STM32F4xx_StdPeriph_Driver/src/stm32f4xx_dac.c ****   */ 
 129:../Libraries/STM32F4xx_StdPeriph_Driver/src/stm32f4xx_dac.c **** 
 130:../Libraries/STM32F4xx_StdPeriph_Driver/src/stm32f4xx_dac.c **** /* Private typedef -----------------------------------------------------------*/
 131:../Libraries/STM32F4xx_StdPeriph_Driver/src/stm32f4xx_dac.c **** /* Private define ------------------------------------------------------------*/
 132:../Libraries/STM32F4xx_StdPeriph_Driver/src/stm32f4xx_dac.c **** 
 133:../Libraries/STM32F4xx_StdPeriph_Driver/src/stm32f4xx_dac.c **** /* CR register Mask */
 134:../Libraries/STM32F4xx_StdPeriph_Driver/src/stm32f4xx_dac.c **** #define CR_CLEAR_MASK              ((uint32_t)0x00000FFE)
 135:../Libraries/STM32F4xx_StdPeriph_Driver/src/stm32f4xx_dac.c **** 
 136:../Libraries/STM32F4xx_StdPeriph_Driver/src/stm32f4xx_dac.c **** /* DAC Dual Channels SWTRIG masks */
 137:../Libraries/STM32F4xx_StdPeriph_Driver/src/stm32f4xx_dac.c **** #define DUAL_SWTRIG_SET            ((uint32_t)0x00000003)
 138:../Libraries/STM32F4xx_StdPeriph_Driver/src/stm32f4xx_dac.c **** #define DUAL_SWTRIG_RESET          ((uint32_t)0xFFFFFFFC)
 139:../Libraries/STM32F4xx_StdPeriph_Driver/src/stm32f4xx_dac.c **** 
 140:../Libraries/STM32F4xx_StdPeriph_Driver/src/stm32f4xx_dac.c **** /* DHR registers offsets */
 141:../Libraries/STM32F4xx_StdPeriph_Driver/src/stm32f4xx_dac.c **** #define DHR12R1_OFFSET             ((uint32_t)0x00000008)
 142:../Libraries/STM32F4xx_StdPeriph_Driver/src/stm32f4xx_dac.c **** #define DHR12R2_OFFSET             ((uint32_t)0x00000014)
 143:../Libraries/STM32F4xx_StdPeriph_Driver/src/stm32f4xx_dac.c **** #define DHR12RD_OFFSET             ((uint32_t)0x00000020)
 144:../Libraries/STM32F4xx_StdPeriph_Driver/src/stm32f4xx_dac.c **** 
 145:../Libraries/STM32F4xx_StdPeriph_Driver/src/stm32f4xx_dac.c **** /* DOR register offset */
 146:../Libraries/STM32F4xx_StdPeriph_Driver/src/stm32f4xx_dac.c **** #define DOR_OFFSET                 ((uint32_t)0x0000002C)
 147:../Libraries/STM32F4xx_StdPeriph_Driver/src/stm32f4xx_dac.c **** 
 148:../Libraries/STM32F4xx_StdPeriph_Driver/src/stm32f4xx_dac.c **** /* Private macro -------------------------------------------------------------*/
 149:../Libraries/STM32F4xx_StdPeriph_Driver/src/stm32f4xx_dac.c **** /* Private variables ---------------------------------------------------------*/
 150:../Libraries/STM32F4xx_StdPeriph_Driver/src/stm32f4xx_dac.c **** /* Private function prototypes -----------------------------------------------*/
 151:../Libraries/STM32F4xx_StdPeriph_Driver/src/stm32f4xx_dac.c **** /* Private functions ---------------------------------------------------------*/
 152:../Libraries/STM32F4xx_StdPeriph_Driver/src/stm32f4xx_dac.c **** 
 153:../Libraries/STM32F4xx_StdPeriph_Driver/src/stm32f4xx_dac.c **** /** @defgroup DAC_Private_Functions
 154:../Libraries/STM32F4xx_StdPeriph_Driver/src/stm32f4xx_dac.c ****   * @{
 155:../Libraries/STM32F4xx_StdPeriph_Driver/src/stm32f4xx_dac.c ****   */
 156:../Libraries/STM32F4xx_StdPeriph_Driver/src/stm32f4xx_dac.c **** 
 157:../Libraries/STM32F4xx_StdPeriph_Driver/src/stm32f4xx_dac.c **** /** @defgroup DAC_Group1 DAC channels configuration
 158:../Libraries/STM32F4xx_StdPeriph_Driver/src/stm32f4xx_dac.c ****  *  @brief   DAC channels configuration: trigger, output buffer, data format 
 159:../Libraries/STM32F4xx_StdPeriph_Driver/src/stm32f4xx_dac.c ****  *
 160:../Libraries/STM32F4xx_StdPeriph_Driver/src/stm32f4xx_dac.c **** @verbatim   
 161:../Libraries/STM32F4xx_StdPeriph_Driver/src/stm32f4xx_dac.c ****  ===============================================================================
 162:../Libraries/STM32F4xx_StdPeriph_Driver/src/stm32f4xx_dac.c ****           DAC channels configuration: trigger, output buffer, data format
 163:../Libraries/STM32F4xx_StdPeriph_Driver/src/stm32f4xx_dac.c ****  ===============================================================================  
 164:../Libraries/STM32F4xx_StdPeriph_Driver/src/stm32f4xx_dac.c **** 
 165:../Libraries/STM32F4xx_StdPeriph_Driver/src/stm32f4xx_dac.c **** @endverbatim
 166:../Libraries/STM32F4xx_StdPeriph_Driver/src/stm32f4xx_dac.c ****   * @{
 167:../Libraries/STM32F4xx_StdPeriph_Driver/src/stm32f4xx_dac.c ****   */
 168:../Libraries/STM32F4xx_StdPeriph_Driver/src/stm32f4xx_dac.c **** 
 169:../Libraries/STM32F4xx_StdPeriph_Driver/src/stm32f4xx_dac.c **** /**
 170:../Libraries/STM32F4xx_StdPeriph_Driver/src/stm32f4xx_dac.c ****   * @brief  Deinitializes the DAC peripheral registers to their default reset values.
 171:../Libraries/STM32F4xx_StdPeriph_Driver/src/stm32f4xx_dac.c ****   * @param  None
 172:../Libraries/STM32F4xx_StdPeriph_Driver/src/stm32f4xx_dac.c ****   * @retval None
 173:../Libraries/STM32F4xx_StdPeriph_Driver/src/stm32f4xx_dac.c ****   */
 174:../Libraries/STM32F4xx_StdPeriph_Driver/src/stm32f4xx_dac.c **** void DAC_DeInit(void)
 175:../Libraries/STM32F4xx_StdPeriph_Driver/src/stm32f4xx_dac.c **** {
  26              		.loc 1 175 0
  27              		.cfi_startproc
  28              		@ args = 0, pretend = 0, frame = 0
  29              		@ frame_needed = 1, uses_anonymous_args = 0
  30 0000 80B5     		push	{r7, lr}
  31              	.LCFI0:
  32              		.cfi_def_cfa_offset 8
  33              		.cfi_offset 14, -4
  34              		.cfi_offset 7, -8
  35 0002 00AF     		add	r7, sp, #0
  36              	.LCFI1:
  37              		.cfi_def_cfa_register 7
 176:../Libraries/STM32F4xx_StdPeriph_Driver/src/stm32f4xx_dac.c ****   /* Enable DAC reset state */
 177:../Libraries/STM32F4xx_StdPeriph_Driver/src/stm32f4xx_dac.c ****   RCC_APB1PeriphResetCmd(RCC_APB1Periph_DAC, ENABLE);
  38              		.loc 1 177 0
  39 0004 4FF00050 		mov	r0, #536870912
  40 0008 4FF00101 		mov	r1, #1
  41 000c FFF7FEFF 		bl	RCC_APB1PeriphResetCmd
 178:../Libraries/STM32F4xx_StdPeriph_Driver/src/stm32f4xx_dac.c ****   /* Release DAC from reset state */
 179:../Libraries/STM32F4xx_StdPeriph_Driver/src/stm32f4xx_dac.c ****   RCC_APB1PeriphResetCmd(RCC_APB1Periph_DAC, DISABLE);
  42              		.loc 1 179 0
  43 0010 4FF00050 		mov	r0, #536870912
  44 0014 4FF00001 		mov	r1, #0
  45 0018 FFF7FEFF 		bl	RCC_APB1PeriphResetCmd
 180:../Libraries/STM32F4xx_StdPeriph_Driver/src/stm32f4xx_dac.c **** }
  46              		.loc 1 180 0
  47 001c 80BD     		pop	{r7, pc}
  48              		.cfi_endproc
  49              	.LFE110:
  51 001e 00BF     		.align	2
  52              		.global	DAC_Init
  53              		.thumb
  54              		.thumb_func
  56              	DAC_Init:
  57              	.LFB111:
 181:../Libraries/STM32F4xx_StdPeriph_Driver/src/stm32f4xx_dac.c **** 
 182:../Libraries/STM32F4xx_StdPeriph_Driver/src/stm32f4xx_dac.c **** /**
 183:../Libraries/STM32F4xx_StdPeriph_Driver/src/stm32f4xx_dac.c ****   * @brief  Initializes the DAC peripheral according to the specified parameters
 184:../Libraries/STM32F4xx_StdPeriph_Driver/src/stm32f4xx_dac.c ****   *         in the DAC_InitStruct.
 185:../Libraries/STM32F4xx_StdPeriph_Driver/src/stm32f4xx_dac.c ****   * @param  DAC_Channel: the selected DAC channel. 
 186:../Libraries/STM32F4xx_StdPeriph_Driver/src/stm32f4xx_dac.c ****   *          This parameter can be one of the following values:
 187:../Libraries/STM32F4xx_StdPeriph_Driver/src/stm32f4xx_dac.c ****   *            @arg DAC_Channel_1: DAC Channel1 selected
 188:../Libraries/STM32F4xx_StdPeriph_Driver/src/stm32f4xx_dac.c ****   *            @arg DAC_Channel_2: DAC Channel2 selected
 189:../Libraries/STM32F4xx_StdPeriph_Driver/src/stm32f4xx_dac.c ****   * @param  DAC_InitStruct: pointer to a DAC_InitTypeDef structure that contains
 190:../Libraries/STM32F4xx_StdPeriph_Driver/src/stm32f4xx_dac.c ****   *         the configuration information for the  specified DAC channel.
 191:../Libraries/STM32F4xx_StdPeriph_Driver/src/stm32f4xx_dac.c ****   * @retval None
 192:../Libraries/STM32F4xx_StdPeriph_Driver/src/stm32f4xx_dac.c ****   */
 193:../Libraries/STM32F4xx_StdPeriph_Driver/src/stm32f4xx_dac.c **** void DAC_Init(uint32_t DAC_Channel, DAC_InitTypeDef* DAC_InitStruct)
 194:../Libraries/STM32F4xx_StdPeriph_Driver/src/stm32f4xx_dac.c **** {
  58              		.loc 1 194 0
  59              		.cfi_startproc
  60              		@ args = 0, pretend = 0, frame = 16
  61              		@ frame_needed = 1, uses_anonymous_args = 0
  62              		@ link register save eliminated.
  63 0020 80B4     		push	{r7}
  64              	.LCFI2:
  65              		.cfi_def_cfa_offset 4
  66              		.cfi_offset 7, -4
  67 0022 85B0     		sub	sp, sp, #20
  68              	.LCFI3:
  69              		.cfi_def_cfa_offset 24
  70 0024 00AF     		add	r7, sp, #0
  71              	.LCFI4:
  72              		.cfi_def_cfa_register 7
  73 0026 7860     		str	r0, [r7, #4]
  74 0028 3960     		str	r1, [r7, #0]
 195:../Libraries/STM32F4xx_StdPeriph_Driver/src/stm32f4xx_dac.c ****   uint32_t tmpreg1 = 0, tmpreg2 = 0;
  75              		.loc 1 195 0
  76 002a 4FF00003 		mov	r3, #0
  77 002e FB60     		str	r3, [r7, #12]
  78 0030 4FF00003 		mov	r3, #0
  79 0034 BB60     		str	r3, [r7, #8]
 196:../Libraries/STM32F4xx_StdPeriph_Driver/src/stm32f4xx_dac.c **** 
 197:../Libraries/STM32F4xx_StdPeriph_Driver/src/stm32f4xx_dac.c ****   /* Check the DAC parameters */
 198:../Libraries/STM32F4xx_StdPeriph_Driver/src/stm32f4xx_dac.c ****   assert_param(IS_DAC_TRIGGER(DAC_InitStruct->DAC_Trigger));
 199:../Libraries/STM32F4xx_StdPeriph_Driver/src/stm32f4xx_dac.c ****   assert_param(IS_DAC_GENERATE_WAVE(DAC_InitStruct->DAC_WaveGeneration));
 200:../Libraries/STM32F4xx_StdPeriph_Driver/src/stm32f4xx_dac.c ****   assert_param(IS_DAC_LFSR_UNMASK_TRIANGLE_AMPLITUDE(DAC_InitStruct->DAC_LFSRUnmask_TriangleAmplitu
 201:../Libraries/STM32F4xx_StdPeriph_Driver/src/stm32f4xx_dac.c ****   assert_param(IS_DAC_OUTPUT_BUFFER_STATE(DAC_InitStruct->DAC_OutputBuffer));
 202:../Libraries/STM32F4xx_StdPeriph_Driver/src/stm32f4xx_dac.c **** 
 203:../Libraries/STM32F4xx_StdPeriph_Driver/src/stm32f4xx_dac.c **** /*---------------------------- DAC CR Configuration --------------------------*/
 204:../Libraries/STM32F4xx_StdPeriph_Driver/src/stm32f4xx_dac.c ****   /* Get the DAC CR value */
 205:../Libraries/STM32F4xx_StdPeriph_Driver/src/stm32f4xx_dac.c ****   tmpreg1 = DAC->CR;
  80              		.loc 1 205 0
  81 0036 4FF4E843 		mov	r3, #29696
  82 003a C4F20003 		movt	r3, 16384
  83 003e 1B68     		ldr	r3, [r3, #0]
  84 0040 FB60     		str	r3, [r7, #12]
 206:../Libraries/STM32F4xx_StdPeriph_Driver/src/stm32f4xx_dac.c ****   /* Clear BOFFx, TENx, TSELx, WAVEx and MAMPx bits */
 207:../Libraries/STM32F4xx_StdPeriph_Driver/src/stm32f4xx_dac.c ****   tmpreg1 &= ~(CR_CLEAR_MASK << DAC_Channel);
  85              		.loc 1 207 0
  86 0042 7B68     		ldr	r3, [r7, #4]
  87 0044 40F6FE72 		movw	r2, #4094
  88 0048 02FA03F3 		lsl	r3, r2, r3
  89 004c 6FEA0303 		mvn	r3, r3
  90 0050 FA68     		ldr	r2, [r7, #12]
  91 0052 1340     		ands	r3, r3, r2
  92 0054 FB60     		str	r3, [r7, #12]
 208:../Libraries/STM32F4xx_StdPeriph_Driver/src/stm32f4xx_dac.c ****   /* Configure for the selected DAC channel: buffer output, trigger, 
 209:../Libraries/STM32F4xx_StdPeriph_Driver/src/stm32f4xx_dac.c ****      wave generation, mask/amplitude for wave generation */
 210:../Libraries/STM32F4xx_StdPeriph_Driver/src/stm32f4xx_dac.c ****   /* Set TSELx and TENx bits according to DAC_Trigger value */
 211:../Libraries/STM32F4xx_StdPeriph_Driver/src/stm32f4xx_dac.c ****   /* Set WAVEx bits according to DAC_WaveGeneration value */
 212:../Libraries/STM32F4xx_StdPeriph_Driver/src/stm32f4xx_dac.c ****   /* Set MAMPx bits according to DAC_LFSRUnmask_TriangleAmplitude value */ 
 213:../Libraries/STM32F4xx_StdPeriph_Driver/src/stm32f4xx_dac.c ****   /* Set BOFFx bit according to DAC_OutputBuffer value */   
 214:../Libraries/STM32F4xx_StdPeriph_Driver/src/stm32f4xx_dac.c ****   tmpreg2 = (DAC_InitStruct->DAC_Trigger | DAC_InitStruct->DAC_WaveGeneration |
  93              		.loc 1 214 0
  94 0056 3B68     		ldr	r3, [r7, #0]
  95 0058 1A68     		ldr	r2, [r3, #0]
  96 005a 3B68     		ldr	r3, [r7, #0]
  97 005c 5B68     		ldr	r3, [r3, #4]
  98 005e 1A43     		orrs	r2, r2, r3
 215:../Libraries/STM32F4xx_StdPeriph_Driver/src/stm32f4xx_dac.c ****              DAC_InitStruct->DAC_LFSRUnmask_TriangleAmplitude | \
  99              		.loc 1 215 0
 100 0060 3B68     		ldr	r3, [r7, #0]
 101 0062 9B68     		ldr	r3, [r3, #8]
 214:../Libraries/STM32F4xx_StdPeriph_Driver/src/stm32f4xx_dac.c ****   tmpreg2 = (DAC_InitStruct->DAC_Trigger | DAC_InitStruct->DAC_WaveGeneration |
 102              		.loc 1 214 0
 103 0064 1A43     		orrs	r2, r2, r3
 216:../Libraries/STM32F4xx_StdPeriph_Driver/src/stm32f4xx_dac.c ****              DAC_InitStruct->DAC_OutputBuffer);
 104              		.loc 1 216 0
 105 0066 3B68     		ldr	r3, [r7, #0]
 106 0068 DB68     		ldr	r3, [r3, #12]
 214:../Libraries/STM32F4xx_StdPeriph_Driver/src/stm32f4xx_dac.c ****   tmpreg2 = (DAC_InitStruct->DAC_Trigger | DAC_InitStruct->DAC_WaveGeneration |
 107              		.loc 1 214 0
 108 006a 1343     		orrs	r3, r3, r2
 109 006c BB60     		str	r3, [r7, #8]
 217:../Libraries/STM32F4xx_StdPeriph_Driver/src/stm32f4xx_dac.c ****   /* Calculate CR register value depending on DAC_Channel */
 218:../Libraries/STM32F4xx_StdPeriph_Driver/src/stm32f4xx_dac.c ****   tmpreg1 |= tmpreg2 << DAC_Channel;
 110              		.loc 1 218 0
 111 006e 7B68     		ldr	r3, [r7, #4]
 112 0070 BA68     		ldr	r2, [r7, #8]
 113 0072 02FA03F3 		lsl	r3, r2, r3
 114 0076 FA68     		ldr	r2, [r7, #12]
 115 0078 1343     		orrs	r3, r3, r2
 116 007a FB60     		str	r3, [r7, #12]
 219:../Libraries/STM32F4xx_StdPeriph_Driver/src/stm32f4xx_dac.c ****   /* Write to DAC CR */
 220:../Libraries/STM32F4xx_StdPeriph_Driver/src/stm32f4xx_dac.c ****   DAC->CR = tmpreg1;
 117              		.loc 1 220 0
 118 007c 4FF4E843 		mov	r3, #29696
 119 0080 C4F20003 		movt	r3, 16384
 120 0084 FA68     		ldr	r2, [r7, #12]
 121 0086 1A60     		str	r2, [r3, #0]
 221:../Libraries/STM32F4xx_StdPeriph_Driver/src/stm32f4xx_dac.c **** }
 122              		.loc 1 221 0
 123 0088 07F11407 		add	r7, r7, #20
 124 008c BD46     		mov	sp, r7
 125 008e 80BC     		pop	{r7}
 126 0090 7047     		bx	lr
 127              		.cfi_endproc
 128              	.LFE111:
 130 0092 00BF     		.align	2
 131              		.global	DAC_StructInit
 132              		.thumb
 133              		.thumb_func
 135              	DAC_StructInit:
 136              	.LFB112:
 222:../Libraries/STM32F4xx_StdPeriph_Driver/src/stm32f4xx_dac.c **** 
 223:../Libraries/STM32F4xx_StdPeriph_Driver/src/stm32f4xx_dac.c **** /**
 224:../Libraries/STM32F4xx_StdPeriph_Driver/src/stm32f4xx_dac.c ****   * @brief  Fills each DAC_InitStruct member with its default value.
 225:../Libraries/STM32F4xx_StdPeriph_Driver/src/stm32f4xx_dac.c ****   * @param  DAC_InitStruct: pointer to a DAC_InitTypeDef structure which will 
 226:../Libraries/STM32F4xx_StdPeriph_Driver/src/stm32f4xx_dac.c ****   *         be initialized.
 227:../Libraries/STM32F4xx_StdPeriph_Driver/src/stm32f4xx_dac.c ****   * @retval None
 228:../Libraries/STM32F4xx_StdPeriph_Driver/src/stm32f4xx_dac.c ****   */
 229:../Libraries/STM32F4xx_StdPeriph_Driver/src/stm32f4xx_dac.c **** void DAC_StructInit(DAC_InitTypeDef* DAC_InitStruct)
 230:../Libraries/STM32F4xx_StdPeriph_Driver/src/stm32f4xx_dac.c **** {
 137              		.loc 1 230 0
 138              		.cfi_startproc
 139              		@ args = 0, pretend = 0, frame = 8
 140              		@ frame_needed = 1, uses_anonymous_args = 0
 141              		@ link register save eliminated.
 142 0094 80B4     		push	{r7}
 143              	.LCFI5:
 144              		.cfi_def_cfa_offset 4
 145              		.cfi_offset 7, -4
 146 0096 83B0     		sub	sp, sp, #12
 147              	.LCFI6:
 148              		.cfi_def_cfa_offset 16
 149 0098 00AF     		add	r7, sp, #0
 150              	.LCFI7:
 151              		.cfi_def_cfa_register 7
 152 009a 7860     		str	r0, [r7, #4]
 231:../Libraries/STM32F4xx_StdPeriph_Driver/src/stm32f4xx_dac.c **** /*--------------- Reset DAC init structure parameters values -----------------*/
 232:../Libraries/STM32F4xx_StdPeriph_Driver/src/stm32f4xx_dac.c ****   /* Initialize the DAC_Trigger member */
 233:../Libraries/STM32F4xx_StdPeriph_Driver/src/stm32f4xx_dac.c ****   DAC_InitStruct->DAC_Trigger = DAC_Trigger_None;
 153              		.loc 1 233 0
 154 009c 7B68     		ldr	r3, [r7, #4]
 155 009e 4FF00002 		mov	r2, #0
 156 00a2 1A60     		str	r2, [r3, #0]
 234:../Libraries/STM32F4xx_StdPeriph_Driver/src/stm32f4xx_dac.c ****   /* Initialize the DAC_WaveGeneration member */
 235:../Libraries/STM32F4xx_StdPeriph_Driver/src/stm32f4xx_dac.c ****   DAC_InitStruct->DAC_WaveGeneration = DAC_WaveGeneration_None;
 157              		.loc 1 235 0
 158 00a4 7B68     		ldr	r3, [r7, #4]
 159 00a6 4FF00002 		mov	r2, #0
 160 00aa 5A60     		str	r2, [r3, #4]
 236:../Libraries/STM32F4xx_StdPeriph_Driver/src/stm32f4xx_dac.c ****   /* Initialize the DAC_LFSRUnmask_TriangleAmplitude member */
 237:../Libraries/STM32F4xx_StdPeriph_Driver/src/stm32f4xx_dac.c ****   DAC_InitStruct->DAC_LFSRUnmask_TriangleAmplitude = DAC_LFSRUnmask_Bit0;
 161              		.loc 1 237 0
 162 00ac 7B68     		ldr	r3, [r7, #4]
 163 00ae 4FF00002 		mov	r2, #0
 164 00b2 9A60     		str	r2, [r3, #8]
 238:../Libraries/STM32F4xx_StdPeriph_Driver/src/stm32f4xx_dac.c ****   /* Initialize the DAC_OutputBuffer member */
 239:../Libraries/STM32F4xx_StdPeriph_Driver/src/stm32f4xx_dac.c ****   DAC_InitStruct->DAC_OutputBuffer = DAC_OutputBuffer_Enable;
 165              		.loc 1 239 0
 166 00b4 7B68     		ldr	r3, [r7, #4]
 167 00b6 4FF00002 		mov	r2, #0
 168 00ba DA60     		str	r2, [r3, #12]
 240:../Libraries/STM32F4xx_StdPeriph_Driver/src/stm32f4xx_dac.c **** }
 169              		.loc 1 240 0
 170 00bc 07F10C07 		add	r7, r7, #12
 171 00c0 BD46     		mov	sp, r7
 172 00c2 80BC     		pop	{r7}
 173 00c4 7047     		bx	lr
 174              		.cfi_endproc
 175              	.LFE112:
 177 00c6 00BF     		.align	2
 178              		.global	DAC_Cmd
 179              		.thumb
 180              		.thumb_func
 182              	DAC_Cmd:
 183              	.LFB113:
 241:../Libraries/STM32F4xx_StdPeriph_Driver/src/stm32f4xx_dac.c **** 
 242:../Libraries/STM32F4xx_StdPeriph_Driver/src/stm32f4xx_dac.c **** /**
 243:../Libraries/STM32F4xx_StdPeriph_Driver/src/stm32f4xx_dac.c ****   * @brief  Enables or disables the specified DAC channel.
 244:../Libraries/STM32F4xx_StdPeriph_Driver/src/stm32f4xx_dac.c ****   * @param  DAC_Channel: The selected DAC channel. 
 245:../Libraries/STM32F4xx_StdPeriph_Driver/src/stm32f4xx_dac.c ****   *          This parameter can be one of the following values:
 246:../Libraries/STM32F4xx_StdPeriph_Driver/src/stm32f4xx_dac.c ****   *            @arg DAC_Channel_1: DAC Channel1 selected
 247:../Libraries/STM32F4xx_StdPeriph_Driver/src/stm32f4xx_dac.c ****   *            @arg DAC_Channel_2: DAC Channel2 selected
 248:../Libraries/STM32F4xx_StdPeriph_Driver/src/stm32f4xx_dac.c ****   * @param  NewState: new state of the DAC channel. 
 249:../Libraries/STM32F4xx_StdPeriph_Driver/src/stm32f4xx_dac.c ****   *          This parameter can be: ENABLE or DISABLE.
 250:../Libraries/STM32F4xx_StdPeriph_Driver/src/stm32f4xx_dac.c ****   * @note   When the DAC channel is enabled the trigger source can no more be modified.
 251:../Libraries/STM32F4xx_StdPeriph_Driver/src/stm32f4xx_dac.c ****   * @retval None
 252:../Libraries/STM32F4xx_StdPeriph_Driver/src/stm32f4xx_dac.c ****   */
 253:../Libraries/STM32F4xx_StdPeriph_Driver/src/stm32f4xx_dac.c **** void DAC_Cmd(uint32_t DAC_Channel, FunctionalState NewState)
 254:../Libraries/STM32F4xx_StdPeriph_Driver/src/stm32f4xx_dac.c **** {
 184              		.loc 1 254 0
 185              		.cfi_startproc
 186              		@ args = 0, pretend = 0, frame = 8
 187              		@ frame_needed = 1, uses_anonymous_args = 0
 188              		@ link register save eliminated.
 189 00c8 80B4     		push	{r7}
 190              	.LCFI8:
 191              		.cfi_def_cfa_offset 4
 192              		.cfi_offset 7, -4
 193 00ca 83B0     		sub	sp, sp, #12
 194              	.LCFI9:
 195              		.cfi_def_cfa_offset 16
 196 00cc 00AF     		add	r7, sp, #0
 197              	.LCFI10:
 198              		.cfi_def_cfa_register 7
 199 00ce 7860     		str	r0, [r7, #4]
 200 00d0 0B46     		mov	r3, r1
 201 00d2 FB70     		strb	r3, [r7, #3]
 255:../Libraries/STM32F4xx_StdPeriph_Driver/src/stm32f4xx_dac.c ****   /* Check the parameters */
 256:../Libraries/STM32F4xx_StdPeriph_Driver/src/stm32f4xx_dac.c ****   assert_param(IS_DAC_CHANNEL(DAC_Channel));
 257:../Libraries/STM32F4xx_StdPeriph_Driver/src/stm32f4xx_dac.c ****   assert_param(IS_FUNCTIONAL_STATE(NewState));
 258:../Libraries/STM32F4xx_StdPeriph_Driver/src/stm32f4xx_dac.c **** 
 259:../Libraries/STM32F4xx_StdPeriph_Driver/src/stm32f4xx_dac.c ****   if (NewState != DISABLE)
 202              		.loc 1 259 0
 203 00d4 FB78     		ldrb	r3, [r7, #3]	@ zero_extendqisi2
 204 00d6 002B     		cmp	r3, #0
 205 00d8 10D0     		beq	.L5
 260:../Libraries/STM32F4xx_StdPeriph_Driver/src/stm32f4xx_dac.c ****   {
 261:../Libraries/STM32F4xx_StdPeriph_Driver/src/stm32f4xx_dac.c ****     /* Enable the selected DAC channel */
 262:../Libraries/STM32F4xx_StdPeriph_Driver/src/stm32f4xx_dac.c ****     DAC->CR |= (DAC_CR_EN1 << DAC_Channel);
 206              		.loc 1 262 0
 207 00da 4FF4E843 		mov	r3, #29696
 208 00de C4F20003 		movt	r3, 16384
 209 00e2 4FF4E842 		mov	r2, #29696
 210 00e6 C4F20002 		movt	r2, 16384
 211 00ea 1168     		ldr	r1, [r2, #0]
 212 00ec 7A68     		ldr	r2, [r7, #4]
 213 00ee 4FF00100 		mov	r0, #1
 214 00f2 00FA02F2 		lsl	r2, r0, r2
 215 00f6 0A43     		orrs	r2, r2, r1
 216 00f8 1A60     		str	r2, [r3, #0]
 217 00fa 11E0     		b	.L4
 218              	.L5:
 263:../Libraries/STM32F4xx_StdPeriph_Driver/src/stm32f4xx_dac.c ****   }
 264:../Libraries/STM32F4xx_StdPeriph_Driver/src/stm32f4xx_dac.c ****   else
 265:../Libraries/STM32F4xx_StdPeriph_Driver/src/stm32f4xx_dac.c ****   {
 266:../Libraries/STM32F4xx_StdPeriph_Driver/src/stm32f4xx_dac.c ****     /* Disable the selected DAC channel */
 267:../Libraries/STM32F4xx_StdPeriph_Driver/src/stm32f4xx_dac.c ****     DAC->CR &= (~(DAC_CR_EN1 << DAC_Channel));
 219              		.loc 1 267 0
 220 00fc 4FF4E843 		mov	r3, #29696
 221 0100 C4F20003 		movt	r3, 16384
 222 0104 4FF4E842 		mov	r2, #29696
 223 0108 C4F20002 		movt	r2, 16384
 224 010c 1168     		ldr	r1, [r2, #0]
 225 010e 7A68     		ldr	r2, [r7, #4]
 226 0110 4FF00100 		mov	r0, #1
 227 0114 00FA02F2 		lsl	r2, r0, r2
 228 0118 6FEA0202 		mvn	r2, r2
 229 011c 0A40     		ands	r2, r2, r1
 230 011e 1A60     		str	r2, [r3, #0]
 231              	.L4:
 268:../Libraries/STM32F4xx_StdPeriph_Driver/src/stm32f4xx_dac.c ****   }
 269:../Libraries/STM32F4xx_StdPeriph_Driver/src/stm32f4xx_dac.c **** }
 232              		.loc 1 269 0
 233 0120 07F10C07 		add	r7, r7, #12
 234 0124 BD46     		mov	sp, r7
 235 0126 80BC     		pop	{r7}
 236 0128 7047     		bx	lr
 237              		.cfi_endproc
 238              	.LFE113:
 240 012a 00BF     		.align	2
 241              		.global	DAC_SoftwareTriggerCmd
 242              		.thumb
 243              		.thumb_func
 245              	DAC_SoftwareTriggerCmd:
 246              	.LFB114:
 270:../Libraries/STM32F4xx_StdPeriph_Driver/src/stm32f4xx_dac.c **** 
 271:../Libraries/STM32F4xx_StdPeriph_Driver/src/stm32f4xx_dac.c **** /**
 272:../Libraries/STM32F4xx_StdPeriph_Driver/src/stm32f4xx_dac.c ****   * @brief  Enables or disables the selected DAC channel software trigger.
 273:../Libraries/STM32F4xx_StdPeriph_Driver/src/stm32f4xx_dac.c ****   * @param  DAC_Channel: The selected DAC channel. 
 274:../Libraries/STM32F4xx_StdPeriph_Driver/src/stm32f4xx_dac.c ****   *          This parameter can be one of the following values:
 275:../Libraries/STM32F4xx_StdPeriph_Driver/src/stm32f4xx_dac.c ****   *            @arg DAC_Channel_1: DAC Channel1 selected
 276:../Libraries/STM32F4xx_StdPeriph_Driver/src/stm32f4xx_dac.c ****   *            @arg DAC_Channel_2: DAC Channel2 selected
 277:../Libraries/STM32F4xx_StdPeriph_Driver/src/stm32f4xx_dac.c ****   * @param  NewState: new state of the selected DAC channel software trigger.
 278:../Libraries/STM32F4xx_StdPeriph_Driver/src/stm32f4xx_dac.c ****   *          This parameter can be: ENABLE or DISABLE.
 279:../Libraries/STM32F4xx_StdPeriph_Driver/src/stm32f4xx_dac.c ****   * @retval None
 280:../Libraries/STM32F4xx_StdPeriph_Driver/src/stm32f4xx_dac.c ****   */
 281:../Libraries/STM32F4xx_StdPeriph_Driver/src/stm32f4xx_dac.c **** void DAC_SoftwareTriggerCmd(uint32_t DAC_Channel, FunctionalState NewState)
 282:../Libraries/STM32F4xx_StdPeriph_Driver/src/stm32f4xx_dac.c **** {
 247              		.loc 1 282 0
 248              		.cfi_startproc
 249              		@ args = 0, pretend = 0, frame = 8
 250              		@ frame_needed = 1, uses_anonymous_args = 0
 251              		@ link register save eliminated.
 252 012c 80B4     		push	{r7}
 253              	.LCFI11:
 254              		.cfi_def_cfa_offset 4
 255              		.cfi_offset 7, -4
 256 012e 83B0     		sub	sp, sp, #12
 257              	.LCFI12:
 258              		.cfi_def_cfa_offset 16
 259 0130 00AF     		add	r7, sp, #0
 260              	.LCFI13:
 261              		.cfi_def_cfa_register 7
 262 0132 7860     		str	r0, [r7, #4]
 263 0134 0B46     		mov	r3, r1
 264 0136 FB70     		strb	r3, [r7, #3]
 283:../Libraries/STM32F4xx_StdPeriph_Driver/src/stm32f4xx_dac.c ****   /* Check the parameters */
 284:../Libraries/STM32F4xx_StdPeriph_Driver/src/stm32f4xx_dac.c ****   assert_param(IS_DAC_CHANNEL(DAC_Channel));
 285:../Libraries/STM32F4xx_StdPeriph_Driver/src/stm32f4xx_dac.c ****   assert_param(IS_FUNCTIONAL_STATE(NewState));
 286:../Libraries/STM32F4xx_StdPeriph_Driver/src/stm32f4xx_dac.c **** 
 287:../Libraries/STM32F4xx_StdPeriph_Driver/src/stm32f4xx_dac.c ****   if (NewState != DISABLE)
 265              		.loc 1 287 0
 266 0138 FB78     		ldrb	r3, [r7, #3]	@ zero_extendqisi2
 267 013a 002B     		cmp	r3, #0
 268 013c 12D0     		beq	.L8
 288:../Libraries/STM32F4xx_StdPeriph_Driver/src/stm32f4xx_dac.c ****   {
 289:../Libraries/STM32F4xx_StdPeriph_Driver/src/stm32f4xx_dac.c ****     /* Enable software trigger for the selected DAC channel */
 290:../Libraries/STM32F4xx_StdPeriph_Driver/src/stm32f4xx_dac.c ****     DAC->SWTRIGR |= (uint32_t)DAC_SWTRIGR_SWTRIG1 << (DAC_Channel >> 4);
 269              		.loc 1 290 0
 270 013e 4FF4E843 		mov	r3, #29696
 271 0142 C4F20003 		movt	r3, 16384
 272 0146 4FF4E842 		mov	r2, #29696
 273 014a C4F20002 		movt	r2, 16384
 274 014e 5168     		ldr	r1, [r2, #4]
 275 0150 7A68     		ldr	r2, [r7, #4]
 276 0152 4FEA1212 		lsr	r2, r2, #4
 277 0156 4FF00100 		mov	r0, #1
 278 015a 00FA02F2 		lsl	r2, r0, r2
 279 015e 0A43     		orrs	r2, r2, r1
 280 0160 5A60     		str	r2, [r3, #4]
 281 0162 13E0     		b	.L7
 282              	.L8:
 291:../Libraries/STM32F4xx_StdPeriph_Driver/src/stm32f4xx_dac.c ****   }
 292:../Libraries/STM32F4xx_StdPeriph_Driver/src/stm32f4xx_dac.c ****   else
 293:../Libraries/STM32F4xx_StdPeriph_Driver/src/stm32f4xx_dac.c ****   {
 294:../Libraries/STM32F4xx_StdPeriph_Driver/src/stm32f4xx_dac.c ****     /* Disable software trigger for the selected DAC channel */
 295:../Libraries/STM32F4xx_StdPeriph_Driver/src/stm32f4xx_dac.c ****     DAC->SWTRIGR &= ~((uint32_t)DAC_SWTRIGR_SWTRIG1 << (DAC_Channel >> 4));
 283              		.loc 1 295 0
 284 0164 4FF4E843 		mov	r3, #29696
 285 0168 C4F20003 		movt	r3, 16384
 286 016c 4FF4E842 		mov	r2, #29696
 287 0170 C4F20002 		movt	r2, 16384
 288 0174 5168     		ldr	r1, [r2, #4]
 289 0176 7A68     		ldr	r2, [r7, #4]
 290 0178 4FEA1212 		lsr	r2, r2, #4
 291 017c 4FF00100 		mov	r0, #1
 292 0180 00FA02F2 		lsl	r2, r0, r2
 293 0184 6FEA0202 		mvn	r2, r2
 294 0188 0A40     		ands	r2, r2, r1
 295 018a 5A60     		str	r2, [r3, #4]
 296              	.L7:
 296:../Libraries/STM32F4xx_StdPeriph_Driver/src/stm32f4xx_dac.c ****   }
 297:../Libraries/STM32F4xx_StdPeriph_Driver/src/stm32f4xx_dac.c **** }
 297              		.loc 1 297 0
 298 018c 07F10C07 		add	r7, r7, #12
 299 0190 BD46     		mov	sp, r7
 300 0192 80BC     		pop	{r7}
 301 0194 7047     		bx	lr
 302              		.cfi_endproc
 303              	.LFE114:
 305 0196 00BF     		.align	2
 306              		.global	DAC_DualSoftwareTriggerCmd
 307              		.thumb
 308              		.thumb_func
 310              	DAC_DualSoftwareTriggerCmd:
 311              	.LFB115:
 298:../Libraries/STM32F4xx_StdPeriph_Driver/src/stm32f4xx_dac.c **** 
 299:../Libraries/STM32F4xx_StdPeriph_Driver/src/stm32f4xx_dac.c **** /**
 300:../Libraries/STM32F4xx_StdPeriph_Driver/src/stm32f4xx_dac.c ****   * @brief  Enables or disables simultaneously the two DAC channels software triggers.
 301:../Libraries/STM32F4xx_StdPeriph_Driver/src/stm32f4xx_dac.c ****   * @param  NewState: new state of the DAC channels software triggers.
 302:../Libraries/STM32F4xx_StdPeriph_Driver/src/stm32f4xx_dac.c ****   *          This parameter can be: ENABLE or DISABLE.
 303:../Libraries/STM32F4xx_StdPeriph_Driver/src/stm32f4xx_dac.c ****   * @retval None
 304:../Libraries/STM32F4xx_StdPeriph_Driver/src/stm32f4xx_dac.c ****   */
 305:../Libraries/STM32F4xx_StdPeriph_Driver/src/stm32f4xx_dac.c **** void DAC_DualSoftwareTriggerCmd(FunctionalState NewState)
 306:../Libraries/STM32F4xx_StdPeriph_Driver/src/stm32f4xx_dac.c **** {
 312              		.loc 1 306 0
 313              		.cfi_startproc
 314              		@ args = 0, pretend = 0, frame = 8
 315              		@ frame_needed = 1, uses_anonymous_args = 0
 316              		@ link register save eliminated.
 317 0198 80B4     		push	{r7}
 318              	.LCFI14:
 319              		.cfi_def_cfa_offset 4
 320              		.cfi_offset 7, -4
 321 019a 83B0     		sub	sp, sp, #12
 322              	.LCFI15:
 323              		.cfi_def_cfa_offset 16
 324 019c 00AF     		add	r7, sp, #0
 325              	.LCFI16:
 326              		.cfi_def_cfa_register 7
 327 019e 0346     		mov	r3, r0
 328 01a0 FB71     		strb	r3, [r7, #7]
 307:../Libraries/STM32F4xx_StdPeriph_Driver/src/stm32f4xx_dac.c ****   /* Check the parameters */
 308:../Libraries/STM32F4xx_StdPeriph_Driver/src/stm32f4xx_dac.c ****   assert_param(IS_FUNCTIONAL_STATE(NewState));
 309:../Libraries/STM32F4xx_StdPeriph_Driver/src/stm32f4xx_dac.c **** 
 310:../Libraries/STM32F4xx_StdPeriph_Driver/src/stm32f4xx_dac.c ****   if (NewState != DISABLE)
 329              		.loc 1 310 0
 330 01a2 FB79     		ldrb	r3, [r7, #7]	@ zero_extendqisi2
 331 01a4 002B     		cmp	r3, #0
 332 01a6 0CD0     		beq	.L11
 311:../Libraries/STM32F4xx_StdPeriph_Driver/src/stm32f4xx_dac.c ****   {
 312:../Libraries/STM32F4xx_StdPeriph_Driver/src/stm32f4xx_dac.c ****     /* Enable software trigger for both DAC channels */
 313:../Libraries/STM32F4xx_StdPeriph_Driver/src/stm32f4xx_dac.c ****     DAC->SWTRIGR |= DUAL_SWTRIG_SET;
 333              		.loc 1 313 0
 334 01a8 4FF4E843 		mov	r3, #29696
 335 01ac C4F20003 		movt	r3, 16384
 336 01b0 4FF4E842 		mov	r2, #29696
 337 01b4 C4F20002 		movt	r2, 16384
 338 01b8 5268     		ldr	r2, [r2, #4]
 339 01ba 42F00302 		orr	r2, r2, #3
 340 01be 5A60     		str	r2, [r3, #4]
 341 01c0 0BE0     		b	.L10
 342              	.L11:
 314:../Libraries/STM32F4xx_StdPeriph_Driver/src/stm32f4xx_dac.c ****   }
 315:../Libraries/STM32F4xx_StdPeriph_Driver/src/stm32f4xx_dac.c ****   else
 316:../Libraries/STM32F4xx_StdPeriph_Driver/src/stm32f4xx_dac.c ****   {
 317:../Libraries/STM32F4xx_StdPeriph_Driver/src/stm32f4xx_dac.c ****     /* Disable software trigger for both DAC channels */
 318:../Libraries/STM32F4xx_StdPeriph_Driver/src/stm32f4xx_dac.c ****     DAC->SWTRIGR &= DUAL_SWTRIG_RESET;
 343              		.loc 1 318 0
 344 01c2 4FF4E843 		mov	r3, #29696
 345 01c6 C4F20003 		movt	r3, 16384
 346 01ca 4FF4E842 		mov	r2, #29696
 347 01ce C4F20002 		movt	r2, 16384
 348 01d2 5268     		ldr	r2, [r2, #4]
 349 01d4 22F00302 		bic	r2, r2, #3
 350 01d8 5A60     		str	r2, [r3, #4]
 351              	.L10:
 319:../Libraries/STM32F4xx_StdPeriph_Driver/src/stm32f4xx_dac.c ****   }
 320:../Libraries/STM32F4xx_StdPeriph_Driver/src/stm32f4xx_dac.c **** }
 352              		.loc 1 320 0
 353 01da 07F10C07 		add	r7, r7, #12
 354 01de BD46     		mov	sp, r7
 355 01e0 80BC     		pop	{r7}
 356 01e2 7047     		bx	lr
 357              		.cfi_endproc
 358              	.LFE115:
 360              		.align	2
 361              		.global	DAC_WaveGenerationCmd
 362              		.thumb
 363              		.thumb_func
 365              	DAC_WaveGenerationCmd:
 366              	.LFB116:
 321:../Libraries/STM32F4xx_StdPeriph_Driver/src/stm32f4xx_dac.c **** 
 322:../Libraries/STM32F4xx_StdPeriph_Driver/src/stm32f4xx_dac.c **** /**
 323:../Libraries/STM32F4xx_StdPeriph_Driver/src/stm32f4xx_dac.c ****   * @brief  Enables or disables the selected DAC channel wave generation.
 324:../Libraries/STM32F4xx_StdPeriph_Driver/src/stm32f4xx_dac.c ****   * @param  DAC_Channel: The selected DAC channel. 
 325:../Libraries/STM32F4xx_StdPeriph_Driver/src/stm32f4xx_dac.c ****   *          This parameter can be one of the following values:
 326:../Libraries/STM32F4xx_StdPeriph_Driver/src/stm32f4xx_dac.c ****   *            @arg DAC_Channel_1: DAC Channel1 selected
 327:../Libraries/STM32F4xx_StdPeriph_Driver/src/stm32f4xx_dac.c ****   *            @arg DAC_Channel_2: DAC Channel2 selected
 328:../Libraries/STM32F4xx_StdPeriph_Driver/src/stm32f4xx_dac.c ****   * @param  DAC_Wave: specifies the wave type to enable or disable.
 329:../Libraries/STM32F4xx_StdPeriph_Driver/src/stm32f4xx_dac.c ****   *          This parameter can be one of the following values:
 330:../Libraries/STM32F4xx_StdPeriph_Driver/src/stm32f4xx_dac.c ****   *            @arg DAC_Wave_Noise: noise wave generation
 331:../Libraries/STM32F4xx_StdPeriph_Driver/src/stm32f4xx_dac.c ****   *            @arg DAC_Wave_Triangle: triangle wave generation
 332:../Libraries/STM32F4xx_StdPeriph_Driver/src/stm32f4xx_dac.c ****   * @param  NewState: new state of the selected DAC channel wave generation.
 333:../Libraries/STM32F4xx_StdPeriph_Driver/src/stm32f4xx_dac.c ****   *          This parameter can be: ENABLE or DISABLE.  
 334:../Libraries/STM32F4xx_StdPeriph_Driver/src/stm32f4xx_dac.c ****   * @retval None
 335:../Libraries/STM32F4xx_StdPeriph_Driver/src/stm32f4xx_dac.c ****   */
 336:../Libraries/STM32F4xx_StdPeriph_Driver/src/stm32f4xx_dac.c **** void DAC_WaveGenerationCmd(uint32_t DAC_Channel, uint32_t DAC_Wave, FunctionalState NewState)
 337:../Libraries/STM32F4xx_StdPeriph_Driver/src/stm32f4xx_dac.c **** {
 367              		.loc 1 337 0
 368              		.cfi_startproc
 369              		@ args = 0, pretend = 0, frame = 16
 370              		@ frame_needed = 1, uses_anonymous_args = 0
 371              		@ link register save eliminated.
 372 01e4 80B4     		push	{r7}
 373              	.LCFI17:
 374              		.cfi_def_cfa_offset 4
 375              		.cfi_offset 7, -4
 376 01e6 85B0     		sub	sp, sp, #20
 377              	.LCFI18:
 378              		.cfi_def_cfa_offset 24
 379 01e8 00AF     		add	r7, sp, #0
 380              	.LCFI19:
 381              		.cfi_def_cfa_register 7
 382 01ea F860     		str	r0, [r7, #12]
 383 01ec B960     		str	r1, [r7, #8]
 384 01ee 1346     		mov	r3, r2
 385 01f0 FB71     		strb	r3, [r7, #7]
 338:../Libraries/STM32F4xx_StdPeriph_Driver/src/stm32f4xx_dac.c ****   /* Check the parameters */
 339:../Libraries/STM32F4xx_StdPeriph_Driver/src/stm32f4xx_dac.c ****   assert_param(IS_DAC_CHANNEL(DAC_Channel));
 340:../Libraries/STM32F4xx_StdPeriph_Driver/src/stm32f4xx_dac.c ****   assert_param(IS_DAC_WAVE(DAC_Wave)); 
 341:../Libraries/STM32F4xx_StdPeriph_Driver/src/stm32f4xx_dac.c ****   assert_param(IS_FUNCTIONAL_STATE(NewState));
 342:../Libraries/STM32F4xx_StdPeriph_Driver/src/stm32f4xx_dac.c **** 
 343:../Libraries/STM32F4xx_StdPeriph_Driver/src/stm32f4xx_dac.c ****   if (NewState != DISABLE)
 386              		.loc 1 343 0
 387 01f2 FB79     		ldrb	r3, [r7, #7]	@ zero_extendqisi2
 388 01f4 002B     		cmp	r3, #0
 389 01f6 0FD0     		beq	.L14
 344:../Libraries/STM32F4xx_StdPeriph_Driver/src/stm32f4xx_dac.c ****   {
 345:../Libraries/STM32F4xx_StdPeriph_Driver/src/stm32f4xx_dac.c ****     /* Enable the selected wave generation for the selected DAC channel */
 346:../Libraries/STM32F4xx_StdPeriph_Driver/src/stm32f4xx_dac.c ****     DAC->CR |= DAC_Wave << DAC_Channel;
 390              		.loc 1 346 0
 391 01f8 4FF4E843 		mov	r3, #29696
 392 01fc C4F20003 		movt	r3, 16384
 393 0200 4FF4E842 		mov	r2, #29696
 394 0204 C4F20002 		movt	r2, 16384
 395 0208 1168     		ldr	r1, [r2, #0]
 396 020a FA68     		ldr	r2, [r7, #12]
 397 020c B868     		ldr	r0, [r7, #8]
 398 020e 00FA02F2 		lsl	r2, r0, r2
 399 0212 0A43     		orrs	r2, r2, r1
 400 0214 1A60     		str	r2, [r3, #0]
 401 0216 10E0     		b	.L13
 402              	.L14:
 347:../Libraries/STM32F4xx_StdPeriph_Driver/src/stm32f4xx_dac.c ****   }
 348:../Libraries/STM32F4xx_StdPeriph_Driver/src/stm32f4xx_dac.c ****   else
 349:../Libraries/STM32F4xx_StdPeriph_Driver/src/stm32f4xx_dac.c ****   {
 350:../Libraries/STM32F4xx_StdPeriph_Driver/src/stm32f4xx_dac.c ****     /* Disable the selected wave generation for the selected DAC channel */
 351:../Libraries/STM32F4xx_StdPeriph_Driver/src/stm32f4xx_dac.c ****     DAC->CR &= ~(DAC_Wave << DAC_Channel);
 403              		.loc 1 351 0
 404 0218 4FF4E843 		mov	r3, #29696
 405 021c C4F20003 		movt	r3, 16384
 406 0220 4FF4E842 		mov	r2, #29696
 407 0224 C4F20002 		movt	r2, 16384
 408 0228 1168     		ldr	r1, [r2, #0]
 409 022a FA68     		ldr	r2, [r7, #12]
 410 022c B868     		ldr	r0, [r7, #8]
 411 022e 00FA02F2 		lsl	r2, r0, r2
 412 0232 6FEA0202 		mvn	r2, r2
 413 0236 0A40     		ands	r2, r2, r1
 414 0238 1A60     		str	r2, [r3, #0]
 415              	.L13:
 352:../Libraries/STM32F4xx_StdPeriph_Driver/src/stm32f4xx_dac.c ****   }
 353:../Libraries/STM32F4xx_StdPeriph_Driver/src/stm32f4xx_dac.c **** }
 416              		.loc 1 353 0
 417 023a 07F11407 		add	r7, r7, #20
 418 023e BD46     		mov	sp, r7
 419 0240 80BC     		pop	{r7}
 420 0242 7047     		bx	lr
 421              		.cfi_endproc
 422              	.LFE116:
 424              		.align	2
 425              		.global	DAC_SetChannel1Data
 426              		.thumb
 427              		.thumb_func
 429              	DAC_SetChannel1Data:
 430              	.LFB117:
 354:../Libraries/STM32F4xx_StdPeriph_Driver/src/stm32f4xx_dac.c **** 
 355:../Libraries/STM32F4xx_StdPeriph_Driver/src/stm32f4xx_dac.c **** /**
 356:../Libraries/STM32F4xx_StdPeriph_Driver/src/stm32f4xx_dac.c ****   * @brief  Set the specified data holding register value for DAC channel1.
 357:../Libraries/STM32F4xx_StdPeriph_Driver/src/stm32f4xx_dac.c ****   * @param  DAC_Align: Specifies the data alignment for DAC channel1.
 358:../Libraries/STM32F4xx_StdPeriph_Driver/src/stm32f4xx_dac.c ****   *          This parameter can be one of the following values:
 359:../Libraries/STM32F4xx_StdPeriph_Driver/src/stm32f4xx_dac.c ****   *            @arg DAC_Align_8b_R: 8bit right data alignment selected
 360:../Libraries/STM32F4xx_StdPeriph_Driver/src/stm32f4xx_dac.c ****   *            @arg DAC_Align_12b_L: 12bit left data alignment selected
 361:../Libraries/STM32F4xx_StdPeriph_Driver/src/stm32f4xx_dac.c ****   *            @arg DAC_Align_12b_R: 12bit right data alignment selected
 362:../Libraries/STM32F4xx_StdPeriph_Driver/src/stm32f4xx_dac.c ****   * @param  Data: Data to be loaded in the selected data holding register.
 363:../Libraries/STM32F4xx_StdPeriph_Driver/src/stm32f4xx_dac.c ****   * @retval None
 364:../Libraries/STM32F4xx_StdPeriph_Driver/src/stm32f4xx_dac.c ****   */
 365:../Libraries/STM32F4xx_StdPeriph_Driver/src/stm32f4xx_dac.c **** void DAC_SetChannel1Data(uint32_t DAC_Align, uint16_t Data)
 366:../Libraries/STM32F4xx_StdPeriph_Driver/src/stm32f4xx_dac.c **** {  
 431              		.loc 1 366 0
 432              		.cfi_startproc
 433              		@ args = 0, pretend = 0, frame = 16
 434              		@ frame_needed = 1, uses_anonymous_args = 0
 435              		@ link register save eliminated.
 436 0244 80B4     		push	{r7}
 437              	.LCFI20:
 438              		.cfi_def_cfa_offset 4
 439              		.cfi_offset 7, -4
 440 0246 85B0     		sub	sp, sp, #20
 441              	.LCFI21:
 442              		.cfi_def_cfa_offset 24
 443 0248 00AF     		add	r7, sp, #0
 444              	.LCFI22:
 445              		.cfi_def_cfa_register 7
 446 024a 7860     		str	r0, [r7, #4]
 447 024c 0B46     		mov	r3, r1
 448 024e 7B80     		strh	r3, [r7, #2]	@ movhi
 367:../Libraries/STM32F4xx_StdPeriph_Driver/src/stm32f4xx_dac.c ****   __IO uint32_t tmp = 0;
 449              		.loc 1 367 0
 450 0250 4FF00003 		mov	r3, #0
 451 0254 FB60     		str	r3, [r7, #12]
 368:../Libraries/STM32F4xx_StdPeriph_Driver/src/stm32f4xx_dac.c ****   
 369:../Libraries/STM32F4xx_StdPeriph_Driver/src/stm32f4xx_dac.c ****   /* Check the parameters */
 370:../Libraries/STM32F4xx_StdPeriph_Driver/src/stm32f4xx_dac.c ****   assert_param(IS_DAC_ALIGN(DAC_Align));
 371:../Libraries/STM32F4xx_StdPeriph_Driver/src/stm32f4xx_dac.c ****   assert_param(IS_DAC_DATA(Data));
 372:../Libraries/STM32F4xx_StdPeriph_Driver/src/stm32f4xx_dac.c ****   
 373:../Libraries/STM32F4xx_StdPeriph_Driver/src/stm32f4xx_dac.c ****   tmp = (uint32_t)DAC_BASE; 
 452              		.loc 1 373 0
 453 0256 4FF4E843 		mov	r3, #29696
 454 025a C4F20003 		movt	r3, 16384
 455 025e FB60     		str	r3, [r7, #12]
 374:../Libraries/STM32F4xx_StdPeriph_Driver/src/stm32f4xx_dac.c ****   tmp += DHR12R1_OFFSET + DAC_Align;
 456              		.loc 1 374 0
 457 0260 FA68     		ldr	r2, [r7, #12]
 458 0262 7B68     		ldr	r3, [r7, #4]
 459 0264 D318     		adds	r3, r2, r3
 460 0266 03F10803 		add	r3, r3, #8
 461 026a FB60     		str	r3, [r7, #12]
 375:../Libraries/STM32F4xx_StdPeriph_Driver/src/stm32f4xx_dac.c **** 
 376:../Libraries/STM32F4xx_StdPeriph_Driver/src/stm32f4xx_dac.c ****   /* Set the DAC channel1 selected data holding register */
 377:../Libraries/STM32F4xx_StdPeriph_Driver/src/stm32f4xx_dac.c ****   *(__IO uint32_t *) tmp = Data;
 462              		.loc 1 377 0
 463 026c FB68     		ldr	r3, [r7, #12]
 464 026e 7A88     		ldrh	r2, [r7, #2]
 465 0270 1A60     		str	r2, [r3, #0]
 378:../Libraries/STM32F4xx_StdPeriph_Driver/src/stm32f4xx_dac.c **** }
 466              		.loc 1 378 0
 467 0272 07F11407 		add	r7, r7, #20
 468 0276 BD46     		mov	sp, r7
 469 0278 80BC     		pop	{r7}
 470 027a 7047     		bx	lr
 471              		.cfi_endproc
 472              	.LFE117:
 474              		.align	2
 475              		.global	DAC_SetChannel2Data
 476              		.thumb
 477              		.thumb_func
 479              	DAC_SetChannel2Data:
 480              	.LFB118:
 379:../Libraries/STM32F4xx_StdPeriph_Driver/src/stm32f4xx_dac.c **** 
 380:../Libraries/STM32F4xx_StdPeriph_Driver/src/stm32f4xx_dac.c **** /**
 381:../Libraries/STM32F4xx_StdPeriph_Driver/src/stm32f4xx_dac.c ****   * @brief  Set the specified data holding register value for DAC channel2.
 382:../Libraries/STM32F4xx_StdPeriph_Driver/src/stm32f4xx_dac.c ****   * @param  DAC_Align: Specifies the data alignment for DAC channel2.
 383:../Libraries/STM32F4xx_StdPeriph_Driver/src/stm32f4xx_dac.c ****   *          This parameter can be one of the following values:
 384:../Libraries/STM32F4xx_StdPeriph_Driver/src/stm32f4xx_dac.c ****   *            @arg DAC_Align_8b_R: 8bit right data alignment selected
 385:../Libraries/STM32F4xx_StdPeriph_Driver/src/stm32f4xx_dac.c ****   *            @arg DAC_Align_12b_L: 12bit left data alignment selected
 386:../Libraries/STM32F4xx_StdPeriph_Driver/src/stm32f4xx_dac.c ****   *            @arg DAC_Align_12b_R: 12bit right data alignment selected
 387:../Libraries/STM32F4xx_StdPeriph_Driver/src/stm32f4xx_dac.c ****   * @param  Data: Data to be loaded in the selected data holding register.
 388:../Libraries/STM32F4xx_StdPeriph_Driver/src/stm32f4xx_dac.c ****   * @retval None
 389:../Libraries/STM32F4xx_StdPeriph_Driver/src/stm32f4xx_dac.c ****   */
 390:../Libraries/STM32F4xx_StdPeriph_Driver/src/stm32f4xx_dac.c **** void DAC_SetChannel2Data(uint32_t DAC_Align, uint16_t Data)
 391:../Libraries/STM32F4xx_StdPeriph_Driver/src/stm32f4xx_dac.c **** {
 481              		.loc 1 391 0
 482              		.cfi_startproc
 483              		@ args = 0, pretend = 0, frame = 16
 484              		@ frame_needed = 1, uses_anonymous_args = 0
 485              		@ link register save eliminated.
 486 027c 80B4     		push	{r7}
 487              	.LCFI23:
 488              		.cfi_def_cfa_offset 4
 489              		.cfi_offset 7, -4
 490 027e 85B0     		sub	sp, sp, #20
 491              	.LCFI24:
 492              		.cfi_def_cfa_offset 24
 493 0280 00AF     		add	r7, sp, #0
 494              	.LCFI25:
 495              		.cfi_def_cfa_register 7
 496 0282 7860     		str	r0, [r7, #4]
 497 0284 0B46     		mov	r3, r1
 498 0286 7B80     		strh	r3, [r7, #2]	@ movhi
 392:../Libraries/STM32F4xx_StdPeriph_Driver/src/stm32f4xx_dac.c ****   __IO uint32_t tmp = 0;
 499              		.loc 1 392 0
 500 0288 4FF00003 		mov	r3, #0
 501 028c FB60     		str	r3, [r7, #12]
 393:../Libraries/STM32F4xx_StdPeriph_Driver/src/stm32f4xx_dac.c **** 
 394:../Libraries/STM32F4xx_StdPeriph_Driver/src/stm32f4xx_dac.c ****   /* Check the parameters */
 395:../Libraries/STM32F4xx_StdPeriph_Driver/src/stm32f4xx_dac.c ****   assert_param(IS_DAC_ALIGN(DAC_Align));
 396:../Libraries/STM32F4xx_StdPeriph_Driver/src/stm32f4xx_dac.c ****   assert_param(IS_DAC_DATA(Data));
 397:../Libraries/STM32F4xx_StdPeriph_Driver/src/stm32f4xx_dac.c ****   
 398:../Libraries/STM32F4xx_StdPeriph_Driver/src/stm32f4xx_dac.c ****   tmp = (uint32_t)DAC_BASE;
 502              		.loc 1 398 0
 503 028e 4FF4E843 		mov	r3, #29696
 504 0292 C4F20003 		movt	r3, 16384
 505 0296 FB60     		str	r3, [r7, #12]
 399:../Libraries/STM32F4xx_StdPeriph_Driver/src/stm32f4xx_dac.c ****   tmp += DHR12R2_OFFSET + DAC_Align;
 506              		.loc 1 399 0
 507 0298 FA68     		ldr	r2, [r7, #12]
 508 029a 7B68     		ldr	r3, [r7, #4]
 509 029c D318     		adds	r3, r2, r3
 510 029e 03F11403 		add	r3, r3, #20
 511 02a2 FB60     		str	r3, [r7, #12]
 400:../Libraries/STM32F4xx_StdPeriph_Driver/src/stm32f4xx_dac.c **** 
 401:../Libraries/STM32F4xx_StdPeriph_Driver/src/stm32f4xx_dac.c ****   /* Set the DAC channel2 selected data holding register */
 402:../Libraries/STM32F4xx_StdPeriph_Driver/src/stm32f4xx_dac.c ****   *(__IO uint32_t *)tmp = Data;
 512              		.loc 1 402 0
 513 02a4 FB68     		ldr	r3, [r7, #12]
 514 02a6 7A88     		ldrh	r2, [r7, #2]
 515 02a8 1A60     		str	r2, [r3, #0]
 403:../Libraries/STM32F4xx_StdPeriph_Driver/src/stm32f4xx_dac.c **** }
 516              		.loc 1 403 0
 517 02aa 07F11407 		add	r7, r7, #20
 518 02ae BD46     		mov	sp, r7
 519 02b0 80BC     		pop	{r7}
 520 02b2 7047     		bx	lr
 521              		.cfi_endproc
 522              	.LFE118:
 524              		.align	2
 525              		.global	DAC_SetDualChannelData
 526              		.thumb
 527              		.thumb_func
 529              	DAC_SetDualChannelData:
 530              	.LFB119:
 404:../Libraries/STM32F4xx_StdPeriph_Driver/src/stm32f4xx_dac.c **** 
 405:../Libraries/STM32F4xx_StdPeriph_Driver/src/stm32f4xx_dac.c **** /**
 406:../Libraries/STM32F4xx_StdPeriph_Driver/src/stm32f4xx_dac.c ****   * @brief  Set the specified data holding register value for dual channel DAC.
 407:../Libraries/STM32F4xx_StdPeriph_Driver/src/stm32f4xx_dac.c ****   * @param  DAC_Align: Specifies the data alignment for dual channel DAC.
 408:../Libraries/STM32F4xx_StdPeriph_Driver/src/stm32f4xx_dac.c ****   *          This parameter can be one of the following values:
 409:../Libraries/STM32F4xx_StdPeriph_Driver/src/stm32f4xx_dac.c ****   *            @arg DAC_Align_8b_R: 8bit right data alignment selected
 410:../Libraries/STM32F4xx_StdPeriph_Driver/src/stm32f4xx_dac.c ****   *            @arg DAC_Align_12b_L: 12bit left data alignment selected
 411:../Libraries/STM32F4xx_StdPeriph_Driver/src/stm32f4xx_dac.c ****   *            @arg DAC_Align_12b_R: 12bit right data alignment selected
 412:../Libraries/STM32F4xx_StdPeriph_Driver/src/stm32f4xx_dac.c ****   * @param  Data2: Data for DAC Channel2 to be loaded in the selected data holding register.
 413:../Libraries/STM32F4xx_StdPeriph_Driver/src/stm32f4xx_dac.c ****   * @param  Data1: Data for DAC Channel1 to be loaded in the selected data  holding register.
 414:../Libraries/STM32F4xx_StdPeriph_Driver/src/stm32f4xx_dac.c ****   * @note   In dual mode, a unique register access is required to write in both
 415:../Libraries/STM32F4xx_StdPeriph_Driver/src/stm32f4xx_dac.c ****   *          DAC channels at the same time.
 416:../Libraries/STM32F4xx_StdPeriph_Driver/src/stm32f4xx_dac.c ****   * @retval None
 417:../Libraries/STM32F4xx_StdPeriph_Driver/src/stm32f4xx_dac.c ****   */
 418:../Libraries/STM32F4xx_StdPeriph_Driver/src/stm32f4xx_dac.c **** void DAC_SetDualChannelData(uint32_t DAC_Align, uint16_t Data2, uint16_t Data1)
 419:../Libraries/STM32F4xx_StdPeriph_Driver/src/stm32f4xx_dac.c **** {
 531              		.loc 1 419 0
 532              		.cfi_startproc
 533              		@ args = 0, pretend = 0, frame = 16
 534              		@ frame_needed = 1, uses_anonymous_args = 0
 535              		@ link register save eliminated.
 536 02b4 80B4     		push	{r7}
 537              	.LCFI26:
 538              		.cfi_def_cfa_offset 4
 539              		.cfi_offset 7, -4
 540 02b6 85B0     		sub	sp, sp, #20
 541              	.LCFI27:
 542              		.cfi_def_cfa_offset 24
 543 02b8 00AF     		add	r7, sp, #0
 544              	.LCFI28:
 545              		.cfi_def_cfa_register 7
 546 02ba 7860     		str	r0, [r7, #4]
 547 02bc 1346     		mov	r3, r2
 548 02be 0A46     		mov	r2, r1	@ movhi
 549 02c0 7A80     		strh	r2, [r7, #2]	@ movhi
 550 02c2 3B80     		strh	r3, [r7, #0]	@ movhi
 420:../Libraries/STM32F4xx_StdPeriph_Driver/src/stm32f4xx_dac.c ****   uint32_t data = 0, tmp = 0;
 551              		.loc 1 420 0
 552 02c4 4FF00003 		mov	r3, #0
 553 02c8 FB60     		str	r3, [r7, #12]
 554 02ca 4FF00003 		mov	r3, #0
 555 02ce BB60     		str	r3, [r7, #8]
 421:../Libraries/STM32F4xx_StdPeriph_Driver/src/stm32f4xx_dac.c ****   
 422:../Libraries/STM32F4xx_StdPeriph_Driver/src/stm32f4xx_dac.c ****   /* Check the parameters */
 423:../Libraries/STM32F4xx_StdPeriph_Driver/src/stm32f4xx_dac.c ****   assert_param(IS_DAC_ALIGN(DAC_Align));
 424:../Libraries/STM32F4xx_StdPeriph_Driver/src/stm32f4xx_dac.c ****   assert_param(IS_DAC_DATA(Data1));
 425:../Libraries/STM32F4xx_StdPeriph_Driver/src/stm32f4xx_dac.c ****   assert_param(IS_DAC_DATA(Data2));
 426:../Libraries/STM32F4xx_StdPeriph_Driver/src/stm32f4xx_dac.c ****   
 427:../Libraries/STM32F4xx_StdPeriph_Driver/src/stm32f4xx_dac.c ****   /* Calculate and set dual DAC data holding register value */
 428:../Libraries/STM32F4xx_StdPeriph_Driver/src/stm32f4xx_dac.c ****   if (DAC_Align == DAC_Align_8b_R)
 556              		.loc 1 428 0
 557 02d0 7B68     		ldr	r3, [r7, #4]
 558 02d2 082B     		cmp	r3, #8
 559 02d4 06D1     		bne	.L19
 429:../Libraries/STM32F4xx_StdPeriph_Driver/src/stm32f4xx_dac.c ****   {
 430:../Libraries/STM32F4xx_StdPeriph_Driver/src/stm32f4xx_dac.c ****     data = ((uint32_t)Data2 << 8) | Data1; 
 560              		.loc 1 430 0
 561 02d6 7B88     		ldrh	r3, [r7, #2]
 562 02d8 4FEA0322 		lsl	r2, r3, #8
 563 02dc 3B88     		ldrh	r3, [r7, #0]
 564 02de 1343     		orrs	r3, r3, r2
 565 02e0 FB60     		str	r3, [r7, #12]
 566 02e2 05E0     		b	.L20
 567              	.L19:
 431:../Libraries/STM32F4xx_StdPeriph_Driver/src/stm32f4xx_dac.c ****   }
 432:../Libraries/STM32F4xx_StdPeriph_Driver/src/stm32f4xx_dac.c ****   else
 433:../Libraries/STM32F4xx_StdPeriph_Driver/src/stm32f4xx_dac.c ****   {
 434:../Libraries/STM32F4xx_StdPeriph_Driver/src/stm32f4xx_dac.c ****     data = ((uint32_t)Data2 << 16) | Data1;
 568              		.loc 1 434 0
 569 02e4 7B88     		ldrh	r3, [r7, #2]
 570 02e6 4FEA0342 		lsl	r2, r3, #16
 571 02ea 3B88     		ldrh	r3, [r7, #0]
 572 02ec 1343     		orrs	r3, r3, r2
 573 02ee FB60     		str	r3, [r7, #12]
 574              	.L20:
 435:../Libraries/STM32F4xx_StdPeriph_Driver/src/stm32f4xx_dac.c ****   }
 436:../Libraries/STM32F4xx_StdPeriph_Driver/src/stm32f4xx_dac.c ****   
 437:../Libraries/STM32F4xx_StdPeriph_Driver/src/stm32f4xx_dac.c ****   tmp = (uint32_t)DAC_BASE;
 575              		.loc 1 437 0
 576 02f0 4FF4E843 		mov	r3, #29696
 577 02f4 C4F20003 		movt	r3, 16384
 578 02f8 BB60     		str	r3, [r7, #8]
 438:../Libraries/STM32F4xx_StdPeriph_Driver/src/stm32f4xx_dac.c ****   tmp += DHR12RD_OFFSET + DAC_Align;
 579              		.loc 1 438 0
 580 02fa 7A68     		ldr	r2, [r7, #4]
 581 02fc BB68     		ldr	r3, [r7, #8]
 582 02fe D318     		adds	r3, r2, r3
 583 0300 03F12003 		add	r3, r3, #32
 584 0304 BB60     		str	r3, [r7, #8]
 439:../Libraries/STM32F4xx_StdPeriph_Driver/src/stm32f4xx_dac.c **** 
 440:../Libraries/STM32F4xx_StdPeriph_Driver/src/stm32f4xx_dac.c ****   /* Set the dual DAC selected data holding register */
 441:../Libraries/STM32F4xx_StdPeriph_Driver/src/stm32f4xx_dac.c ****   *(__IO uint32_t *)tmp = data;
 585              		.loc 1 441 0
 586 0306 BB68     		ldr	r3, [r7, #8]
 587 0308 FA68     		ldr	r2, [r7, #12]
 588 030a 1A60     		str	r2, [r3, #0]
 442:../Libraries/STM32F4xx_StdPeriph_Driver/src/stm32f4xx_dac.c **** }
 589              		.loc 1 442 0
 590 030c 07F11407 		add	r7, r7, #20
 591 0310 BD46     		mov	sp, r7
 592 0312 80BC     		pop	{r7}
 593 0314 7047     		bx	lr
 594              		.cfi_endproc
 595              	.LFE119:
 597 0316 00BF     		.align	2
 598              		.global	DAC_GetDataOutputValue
 599              		.thumb
 600              		.thumb_func
 602              	DAC_GetDataOutputValue:
 603              	.LFB120:
 443:../Libraries/STM32F4xx_StdPeriph_Driver/src/stm32f4xx_dac.c **** 
 444:../Libraries/STM32F4xx_StdPeriph_Driver/src/stm32f4xx_dac.c **** /**
 445:../Libraries/STM32F4xx_StdPeriph_Driver/src/stm32f4xx_dac.c ****   * @brief  Returns the last data output value of the selected DAC channel.
 446:../Libraries/STM32F4xx_StdPeriph_Driver/src/stm32f4xx_dac.c ****   * @param  DAC_Channel: The selected DAC channel. 
 447:../Libraries/STM32F4xx_StdPeriph_Driver/src/stm32f4xx_dac.c ****   *          This parameter can be one of the following values:
 448:../Libraries/STM32F4xx_StdPeriph_Driver/src/stm32f4xx_dac.c ****   *            @arg DAC_Channel_1: DAC Channel1 selected
 449:../Libraries/STM32F4xx_StdPeriph_Driver/src/stm32f4xx_dac.c ****   *            @arg DAC_Channel_2: DAC Channel2 selected
 450:../Libraries/STM32F4xx_StdPeriph_Driver/src/stm32f4xx_dac.c ****   * @retval The selected DAC channel data output value.
 451:../Libraries/STM32F4xx_StdPeriph_Driver/src/stm32f4xx_dac.c ****   */
 452:../Libraries/STM32F4xx_StdPeriph_Driver/src/stm32f4xx_dac.c **** uint16_t DAC_GetDataOutputValue(uint32_t DAC_Channel)
 453:../Libraries/STM32F4xx_StdPeriph_Driver/src/stm32f4xx_dac.c **** {
 604              		.loc 1 453 0
 605              		.cfi_startproc
 606              		@ args = 0, pretend = 0, frame = 16
 607              		@ frame_needed = 1, uses_anonymous_args = 0
 608              		@ link register save eliminated.
 609 0318 80B4     		push	{r7}
 610              	.LCFI29:
 611              		.cfi_def_cfa_offset 4
 612              		.cfi_offset 7, -4
 613 031a 85B0     		sub	sp, sp, #20
 614              	.LCFI30:
 615              		.cfi_def_cfa_offset 24
 616 031c 00AF     		add	r7, sp, #0
 617              	.LCFI31:
 618              		.cfi_def_cfa_register 7
 619 031e 7860     		str	r0, [r7, #4]
 454:../Libraries/STM32F4xx_StdPeriph_Driver/src/stm32f4xx_dac.c ****   __IO uint32_t tmp = 0;
 620              		.loc 1 454 0
 621 0320 4FF00003 		mov	r3, #0
 622 0324 FB60     		str	r3, [r7, #12]
 455:../Libraries/STM32F4xx_StdPeriph_Driver/src/stm32f4xx_dac.c ****   
 456:../Libraries/STM32F4xx_StdPeriph_Driver/src/stm32f4xx_dac.c ****   /* Check the parameters */
 457:../Libraries/STM32F4xx_StdPeriph_Driver/src/stm32f4xx_dac.c ****   assert_param(IS_DAC_CHANNEL(DAC_Channel));
 458:../Libraries/STM32F4xx_StdPeriph_Driver/src/stm32f4xx_dac.c ****   
 459:../Libraries/STM32F4xx_StdPeriph_Driver/src/stm32f4xx_dac.c ****   tmp = (uint32_t) DAC_BASE ;
 623              		.loc 1 459 0
 624 0326 4FF4E843 		mov	r3, #29696
 625 032a C4F20003 		movt	r3, 16384
 626 032e FB60     		str	r3, [r7, #12]
 460:../Libraries/STM32F4xx_StdPeriph_Driver/src/stm32f4xx_dac.c ****   tmp += DOR_OFFSET + ((uint32_t)DAC_Channel >> 2);
 627              		.loc 1 460 0
 628 0330 7B68     		ldr	r3, [r7, #4]
 629 0332 4FEA9302 		lsr	r2, r3, #2
 630 0336 FB68     		ldr	r3, [r7, #12]
 631 0338 D318     		adds	r3, r2, r3
 632 033a 03F12C03 		add	r3, r3, #44
 633 033e FB60     		str	r3, [r7, #12]
 461:../Libraries/STM32F4xx_StdPeriph_Driver/src/stm32f4xx_dac.c ****   
 462:../Libraries/STM32F4xx_StdPeriph_Driver/src/stm32f4xx_dac.c ****   /* Returns the DAC channel data output register value */
 463:../Libraries/STM32F4xx_StdPeriph_Driver/src/stm32f4xx_dac.c ****   return (uint16_t) (*(__IO uint32_t*) tmp);
 634              		.loc 1 463 0
 635 0340 FB68     		ldr	r3, [r7, #12]
 636 0342 1B68     		ldr	r3, [r3, #0]
 637 0344 9BB2     		uxth	r3, r3
 464:../Libraries/STM32F4xx_StdPeriph_Driver/src/stm32f4xx_dac.c **** }
 638              		.loc 1 464 0
 639 0346 1846     		mov	r0, r3
 640 0348 07F11407 		add	r7, r7, #20
 641 034c BD46     		mov	sp, r7
 642 034e 80BC     		pop	{r7}
 643 0350 7047     		bx	lr
 644              		.cfi_endproc
 645              	.LFE120:
 647 0352 00BF     		.align	2
 648              		.global	DAC_DMACmd
 649              		.thumb
 650              		.thumb_func
 652              	DAC_DMACmd:
 653              	.LFB121:
 465:../Libraries/STM32F4xx_StdPeriph_Driver/src/stm32f4xx_dac.c **** /**
 466:../Libraries/STM32F4xx_StdPeriph_Driver/src/stm32f4xx_dac.c ****   * @}
 467:../Libraries/STM32F4xx_StdPeriph_Driver/src/stm32f4xx_dac.c ****   */
 468:../Libraries/STM32F4xx_StdPeriph_Driver/src/stm32f4xx_dac.c **** 
 469:../Libraries/STM32F4xx_StdPeriph_Driver/src/stm32f4xx_dac.c **** /** @defgroup DAC_Group2 DMA management functions
 470:../Libraries/STM32F4xx_StdPeriph_Driver/src/stm32f4xx_dac.c ****  *  @brief   DMA management functions
 471:../Libraries/STM32F4xx_StdPeriph_Driver/src/stm32f4xx_dac.c ****  *
 472:../Libraries/STM32F4xx_StdPeriph_Driver/src/stm32f4xx_dac.c **** @verbatim   
 473:../Libraries/STM32F4xx_StdPeriph_Driver/src/stm32f4xx_dac.c ****  ===============================================================================
 474:../Libraries/STM32F4xx_StdPeriph_Driver/src/stm32f4xx_dac.c ****                           DMA management functions
 475:../Libraries/STM32F4xx_StdPeriph_Driver/src/stm32f4xx_dac.c ****  ===============================================================================  
 476:../Libraries/STM32F4xx_StdPeriph_Driver/src/stm32f4xx_dac.c **** 
 477:../Libraries/STM32F4xx_StdPeriph_Driver/src/stm32f4xx_dac.c **** @endverbatim
 478:../Libraries/STM32F4xx_StdPeriph_Driver/src/stm32f4xx_dac.c ****   * @{
 479:../Libraries/STM32F4xx_StdPeriph_Driver/src/stm32f4xx_dac.c ****   */
 480:../Libraries/STM32F4xx_StdPeriph_Driver/src/stm32f4xx_dac.c **** 
 481:../Libraries/STM32F4xx_StdPeriph_Driver/src/stm32f4xx_dac.c **** /**
 482:../Libraries/STM32F4xx_StdPeriph_Driver/src/stm32f4xx_dac.c ****   * @brief  Enables or disables the specified DAC channel DMA request.
 483:../Libraries/STM32F4xx_StdPeriph_Driver/src/stm32f4xx_dac.c ****   * @note   When enabled DMA1 is generated when an external trigger (EXTI Line9,
 484:../Libraries/STM32F4xx_StdPeriph_Driver/src/stm32f4xx_dac.c ****   *         TIM2, TIM4, TIM5, TIM6, TIM7 or TIM8  but not a software trigger) occurs.
 485:../Libraries/STM32F4xx_StdPeriph_Driver/src/stm32f4xx_dac.c ****   * @param  DAC_Channel: The selected DAC channel. 
 486:../Libraries/STM32F4xx_StdPeriph_Driver/src/stm32f4xx_dac.c ****   *          This parameter can be one of the following values:
 487:../Libraries/STM32F4xx_StdPeriph_Driver/src/stm32f4xx_dac.c ****   *            @arg DAC_Channel_1: DAC Channel1 selected
 488:../Libraries/STM32F4xx_StdPeriph_Driver/src/stm32f4xx_dac.c ****   *            @arg DAC_Channel_2: DAC Channel2 selected
 489:../Libraries/STM32F4xx_StdPeriph_Driver/src/stm32f4xx_dac.c ****   * @param  NewState: new state of the selected DAC channel DMA request.
 490:../Libraries/STM32F4xx_StdPeriph_Driver/src/stm32f4xx_dac.c ****   *          This parameter can be: ENABLE or DISABLE.
 491:../Libraries/STM32F4xx_StdPeriph_Driver/src/stm32f4xx_dac.c ****   * @note   The DAC channel1 is mapped on DMA1 Stream 5 channel7 which must be
 492:../Libraries/STM32F4xx_StdPeriph_Driver/src/stm32f4xx_dac.c ****   *          already configured.
 493:../Libraries/STM32F4xx_StdPeriph_Driver/src/stm32f4xx_dac.c ****   * @note   The DAC channel2 is mapped on DMA1 Stream 6 channel7 which must be
 494:../Libraries/STM32F4xx_StdPeriph_Driver/src/stm32f4xx_dac.c ****   *          already configured.    
 495:../Libraries/STM32F4xx_StdPeriph_Driver/src/stm32f4xx_dac.c ****   * @retval None
 496:../Libraries/STM32F4xx_StdPeriph_Driver/src/stm32f4xx_dac.c ****   */
 497:../Libraries/STM32F4xx_StdPeriph_Driver/src/stm32f4xx_dac.c **** void DAC_DMACmd(uint32_t DAC_Channel, FunctionalState NewState)
 498:../Libraries/STM32F4xx_StdPeriph_Driver/src/stm32f4xx_dac.c **** {
 654              		.loc 1 498 0
 655              		.cfi_startproc
 656              		@ args = 0, pretend = 0, frame = 8
 657              		@ frame_needed = 1, uses_anonymous_args = 0
 658              		@ link register save eliminated.
 659 0354 80B4     		push	{r7}
 660              	.LCFI32:
 661              		.cfi_def_cfa_offset 4
 662              		.cfi_offset 7, -4
 663 0356 83B0     		sub	sp, sp, #12
 664              	.LCFI33:
 665              		.cfi_def_cfa_offset 16
 666 0358 00AF     		add	r7, sp, #0
 667              	.LCFI34:
 668              		.cfi_def_cfa_register 7
 669 035a 7860     		str	r0, [r7, #4]
 670 035c 0B46     		mov	r3, r1
 671 035e FB70     		strb	r3, [r7, #3]
 499:../Libraries/STM32F4xx_StdPeriph_Driver/src/stm32f4xx_dac.c ****   /* Check the parameters */
 500:../Libraries/STM32F4xx_StdPeriph_Driver/src/stm32f4xx_dac.c ****   assert_param(IS_DAC_CHANNEL(DAC_Channel));
 501:../Libraries/STM32F4xx_StdPeriph_Driver/src/stm32f4xx_dac.c ****   assert_param(IS_FUNCTIONAL_STATE(NewState));
 502:../Libraries/STM32F4xx_StdPeriph_Driver/src/stm32f4xx_dac.c **** 
 503:../Libraries/STM32F4xx_StdPeriph_Driver/src/stm32f4xx_dac.c ****   if (NewState != DISABLE)
 672              		.loc 1 503 0
 673 0360 FB78     		ldrb	r3, [r7, #3]	@ zero_extendqisi2
 674 0362 002B     		cmp	r3, #0
 675 0364 10D0     		beq	.L23
 504:../Libraries/STM32F4xx_StdPeriph_Driver/src/stm32f4xx_dac.c ****   {
 505:../Libraries/STM32F4xx_StdPeriph_Driver/src/stm32f4xx_dac.c ****     /* Enable the selected DAC channel DMA request */
 506:../Libraries/STM32F4xx_StdPeriph_Driver/src/stm32f4xx_dac.c ****     DAC->CR |= (DAC_CR_DMAEN1 << DAC_Channel);
 676              		.loc 1 506 0
 677 0366 4FF4E843 		mov	r3, #29696
 678 036a C4F20003 		movt	r3, 16384
 679 036e 4FF4E842 		mov	r2, #29696
 680 0372 C4F20002 		movt	r2, 16384
 681 0376 1168     		ldr	r1, [r2, #0]
 682 0378 7A68     		ldr	r2, [r7, #4]
 683 037a 4FF48050 		mov	r0, #4096
 684 037e 00FA02F2 		lsl	r2, r0, r2
 685 0382 0A43     		orrs	r2, r2, r1
 686 0384 1A60     		str	r2, [r3, #0]
 687 0386 11E0     		b	.L22
 688              	.L23:
 507:../Libraries/STM32F4xx_StdPeriph_Driver/src/stm32f4xx_dac.c ****   }
 508:../Libraries/STM32F4xx_StdPeriph_Driver/src/stm32f4xx_dac.c ****   else
 509:../Libraries/STM32F4xx_StdPeriph_Driver/src/stm32f4xx_dac.c ****   {
 510:../Libraries/STM32F4xx_StdPeriph_Driver/src/stm32f4xx_dac.c ****     /* Disable the selected DAC channel DMA request */
 511:../Libraries/STM32F4xx_StdPeriph_Driver/src/stm32f4xx_dac.c ****     DAC->CR &= (~(DAC_CR_DMAEN1 << DAC_Channel));
 689              		.loc 1 511 0
 690 0388 4FF4E843 		mov	r3, #29696
 691 038c C4F20003 		movt	r3, 16384
 692 0390 4FF4E842 		mov	r2, #29696
 693 0394 C4F20002 		movt	r2, 16384
 694 0398 1168     		ldr	r1, [r2, #0]
 695 039a 7A68     		ldr	r2, [r7, #4]
 696 039c 4FF48050 		mov	r0, #4096
 697 03a0 00FA02F2 		lsl	r2, r0, r2
 698 03a4 6FEA0202 		mvn	r2, r2
 699 03a8 0A40     		ands	r2, r2, r1
 700 03aa 1A60     		str	r2, [r3, #0]
 701              	.L22:
 512:../Libraries/STM32F4xx_StdPeriph_Driver/src/stm32f4xx_dac.c ****   }
 513:../Libraries/STM32F4xx_StdPeriph_Driver/src/stm32f4xx_dac.c **** }
 702              		.loc 1 513 0
 703 03ac 07F10C07 		add	r7, r7, #12
 704 03b0 BD46     		mov	sp, r7
 705 03b2 80BC     		pop	{r7}
 706 03b4 7047     		bx	lr
 707              		.cfi_endproc
 708              	.LFE121:
 710 03b6 00BF     		.align	2
 711              		.global	DAC_ITConfig
 712              		.thumb
 713              		.thumb_func
 715              	DAC_ITConfig:
 716              	.LFB122:
 514:../Libraries/STM32F4xx_StdPeriph_Driver/src/stm32f4xx_dac.c **** /**
 515:../Libraries/STM32F4xx_StdPeriph_Driver/src/stm32f4xx_dac.c ****   * @}
 516:../Libraries/STM32F4xx_StdPeriph_Driver/src/stm32f4xx_dac.c ****   */
 517:../Libraries/STM32F4xx_StdPeriph_Driver/src/stm32f4xx_dac.c **** 
 518:../Libraries/STM32F4xx_StdPeriph_Driver/src/stm32f4xx_dac.c **** /** @defgroup DAC_Group3 Interrupts and flags management functions
 519:../Libraries/STM32F4xx_StdPeriph_Driver/src/stm32f4xx_dac.c ****  *  @brief   Interrupts and flags management functions
 520:../Libraries/STM32F4xx_StdPeriph_Driver/src/stm32f4xx_dac.c ****  *
 521:../Libraries/STM32F4xx_StdPeriph_Driver/src/stm32f4xx_dac.c **** @verbatim   
 522:../Libraries/STM32F4xx_StdPeriph_Driver/src/stm32f4xx_dac.c ****  ===============================================================================
 523:../Libraries/STM32F4xx_StdPeriph_Driver/src/stm32f4xx_dac.c ****                    Interrupts and flags management functions
 524:../Libraries/STM32F4xx_StdPeriph_Driver/src/stm32f4xx_dac.c ****  ===============================================================================  
 525:../Libraries/STM32F4xx_StdPeriph_Driver/src/stm32f4xx_dac.c **** 
 526:../Libraries/STM32F4xx_StdPeriph_Driver/src/stm32f4xx_dac.c **** @endverbatim
 527:../Libraries/STM32F4xx_StdPeriph_Driver/src/stm32f4xx_dac.c ****   * @{
 528:../Libraries/STM32F4xx_StdPeriph_Driver/src/stm32f4xx_dac.c ****   */
 529:../Libraries/STM32F4xx_StdPeriph_Driver/src/stm32f4xx_dac.c **** 
 530:../Libraries/STM32F4xx_StdPeriph_Driver/src/stm32f4xx_dac.c **** /**
 531:../Libraries/STM32F4xx_StdPeriph_Driver/src/stm32f4xx_dac.c ****   * @brief  Enables or disables the specified DAC interrupts.
 532:../Libraries/STM32F4xx_StdPeriph_Driver/src/stm32f4xx_dac.c ****   * @param  DAC_Channel: The selected DAC channel. 
 533:../Libraries/STM32F4xx_StdPeriph_Driver/src/stm32f4xx_dac.c ****   *          This parameter can be one of the following values:
 534:../Libraries/STM32F4xx_StdPeriph_Driver/src/stm32f4xx_dac.c ****   *            @arg DAC_Channel_1: DAC Channel1 selected
 535:../Libraries/STM32F4xx_StdPeriph_Driver/src/stm32f4xx_dac.c ****   *            @arg DAC_Channel_2: DAC Channel2 selected
 536:../Libraries/STM32F4xx_StdPeriph_Driver/src/stm32f4xx_dac.c ****   * @param  DAC_IT: specifies the DAC interrupt sources to be enabled or disabled. 
 537:../Libraries/STM32F4xx_StdPeriph_Driver/src/stm32f4xx_dac.c ****   *          This parameter can be the following values:
 538:../Libraries/STM32F4xx_StdPeriph_Driver/src/stm32f4xx_dac.c ****   *            @arg DAC_IT_DMAUDR: DMA underrun interrupt mask
 539:../Libraries/STM32F4xx_StdPeriph_Driver/src/stm32f4xx_dac.c ****   * @note   The DMA underrun occurs when a second external trigger arrives before the 
 540:../Libraries/STM32F4xx_StdPeriph_Driver/src/stm32f4xx_dac.c ****   *         acknowledgement for the first external trigger is received (first request).
 541:../Libraries/STM32F4xx_StdPeriph_Driver/src/stm32f4xx_dac.c ****   * @param  NewState: new state of the specified DAC interrupts.
 542:../Libraries/STM32F4xx_StdPeriph_Driver/src/stm32f4xx_dac.c ****   *          This parameter can be: ENABLE or DISABLE.
 543:../Libraries/STM32F4xx_StdPeriph_Driver/src/stm32f4xx_dac.c ****   * @retval None
 544:../Libraries/STM32F4xx_StdPeriph_Driver/src/stm32f4xx_dac.c ****   */ 
 545:../Libraries/STM32F4xx_StdPeriph_Driver/src/stm32f4xx_dac.c **** void DAC_ITConfig(uint32_t DAC_Channel, uint32_t DAC_IT, FunctionalState NewState)  
 546:../Libraries/STM32F4xx_StdPeriph_Driver/src/stm32f4xx_dac.c **** {
 717              		.loc 1 546 0
 718              		.cfi_startproc
 719              		@ args = 0, pretend = 0, frame = 16
 720              		@ frame_needed = 1, uses_anonymous_args = 0
 721              		@ link register save eliminated.
 722 03b8 80B4     		push	{r7}
 723              	.LCFI35:
 724              		.cfi_def_cfa_offset 4
 725              		.cfi_offset 7, -4
 726 03ba 85B0     		sub	sp, sp, #20
 727              	.LCFI36:
 728              		.cfi_def_cfa_offset 24
 729 03bc 00AF     		add	r7, sp, #0
 730              	.LCFI37:
 731              		.cfi_def_cfa_register 7
 732 03be F860     		str	r0, [r7, #12]
 733 03c0 B960     		str	r1, [r7, #8]
 734 03c2 1346     		mov	r3, r2
 735 03c4 FB71     		strb	r3, [r7, #7]
 547:../Libraries/STM32F4xx_StdPeriph_Driver/src/stm32f4xx_dac.c ****   /* Check the parameters */
 548:../Libraries/STM32F4xx_StdPeriph_Driver/src/stm32f4xx_dac.c ****   assert_param(IS_DAC_CHANNEL(DAC_Channel));
 549:../Libraries/STM32F4xx_StdPeriph_Driver/src/stm32f4xx_dac.c ****   assert_param(IS_FUNCTIONAL_STATE(NewState));
 550:../Libraries/STM32F4xx_StdPeriph_Driver/src/stm32f4xx_dac.c ****   assert_param(IS_DAC_IT(DAC_IT)); 
 551:../Libraries/STM32F4xx_StdPeriph_Driver/src/stm32f4xx_dac.c **** 
 552:../Libraries/STM32F4xx_StdPeriph_Driver/src/stm32f4xx_dac.c ****   if (NewState != DISABLE)
 736              		.loc 1 552 0
 737 03c6 FB79     		ldrb	r3, [r7, #7]	@ zero_extendqisi2
 738 03c8 002B     		cmp	r3, #0
 739 03ca 0FD0     		beq	.L26
 553:../Libraries/STM32F4xx_StdPeriph_Driver/src/stm32f4xx_dac.c ****   {
 554:../Libraries/STM32F4xx_StdPeriph_Driver/src/stm32f4xx_dac.c ****     /* Enable the selected DAC interrupts */
 555:../Libraries/STM32F4xx_StdPeriph_Driver/src/stm32f4xx_dac.c ****     DAC->CR |=  (DAC_IT << DAC_Channel);
 740              		.loc 1 555 0
 741 03cc 4FF4E843 		mov	r3, #29696
 742 03d0 C4F20003 		movt	r3, 16384
 743 03d4 4FF4E842 		mov	r2, #29696
 744 03d8 C4F20002 		movt	r2, 16384
 745 03dc 1168     		ldr	r1, [r2, #0]
 746 03de FA68     		ldr	r2, [r7, #12]
 747 03e0 B868     		ldr	r0, [r7, #8]
 748 03e2 00FA02F2 		lsl	r2, r0, r2
 749 03e6 0A43     		orrs	r2, r2, r1
 750 03e8 1A60     		str	r2, [r3, #0]
 751 03ea 10E0     		b	.L25
 752              	.L26:
 556:../Libraries/STM32F4xx_StdPeriph_Driver/src/stm32f4xx_dac.c ****   }
 557:../Libraries/STM32F4xx_StdPeriph_Driver/src/stm32f4xx_dac.c ****   else
 558:../Libraries/STM32F4xx_StdPeriph_Driver/src/stm32f4xx_dac.c ****   {
 559:../Libraries/STM32F4xx_StdPeriph_Driver/src/stm32f4xx_dac.c ****     /* Disable the selected DAC interrupts */
 560:../Libraries/STM32F4xx_StdPeriph_Driver/src/stm32f4xx_dac.c ****     DAC->CR &= (~(uint32_t)(DAC_IT << DAC_Channel));
 753              		.loc 1 560 0
 754 03ec 4FF4E843 		mov	r3, #29696
 755 03f0 C4F20003 		movt	r3, 16384
 756 03f4 4FF4E842 		mov	r2, #29696
 757 03f8 C4F20002 		movt	r2, 16384
 758 03fc 1168     		ldr	r1, [r2, #0]
 759 03fe FA68     		ldr	r2, [r7, #12]
 760 0400 B868     		ldr	r0, [r7, #8]
 761 0402 00FA02F2 		lsl	r2, r0, r2
 762 0406 6FEA0202 		mvn	r2, r2
 763 040a 0A40     		ands	r2, r2, r1
 764 040c 1A60     		str	r2, [r3, #0]
 765              	.L25:
 561:../Libraries/STM32F4xx_StdPeriph_Driver/src/stm32f4xx_dac.c ****   }
 562:../Libraries/STM32F4xx_StdPeriph_Driver/src/stm32f4xx_dac.c **** }
 766              		.loc 1 562 0
 767 040e 07F11407 		add	r7, r7, #20
 768 0412 BD46     		mov	sp, r7
 769 0414 80BC     		pop	{r7}
 770 0416 7047     		bx	lr
 771              		.cfi_endproc
 772              	.LFE122:
 774              		.align	2
 775              		.global	DAC_GetFlagStatus
 776              		.thumb
 777              		.thumb_func
 779              	DAC_GetFlagStatus:
 780              	.LFB123:
 563:../Libraries/STM32F4xx_StdPeriph_Driver/src/stm32f4xx_dac.c **** 
 564:../Libraries/STM32F4xx_StdPeriph_Driver/src/stm32f4xx_dac.c **** /**
 565:../Libraries/STM32F4xx_StdPeriph_Driver/src/stm32f4xx_dac.c ****   * @brief  Checks whether the specified DAC flag is set or not.
 566:../Libraries/STM32F4xx_StdPeriph_Driver/src/stm32f4xx_dac.c ****   * @param  DAC_Channel: The selected DAC channel. 
 567:../Libraries/STM32F4xx_StdPeriph_Driver/src/stm32f4xx_dac.c ****   *          This parameter can be one of the following values:
 568:../Libraries/STM32F4xx_StdPeriph_Driver/src/stm32f4xx_dac.c ****   *            @arg DAC_Channel_1: DAC Channel1 selected
 569:../Libraries/STM32F4xx_StdPeriph_Driver/src/stm32f4xx_dac.c ****   *            @arg DAC_Channel_2: DAC Channel2 selected
 570:../Libraries/STM32F4xx_StdPeriph_Driver/src/stm32f4xx_dac.c ****   * @param  DAC_FLAG: specifies the flag to check. 
 571:../Libraries/STM32F4xx_StdPeriph_Driver/src/stm32f4xx_dac.c ****   *          This parameter can be only of the following value:
 572:../Libraries/STM32F4xx_StdPeriph_Driver/src/stm32f4xx_dac.c ****   *            @arg DAC_FLAG_DMAUDR: DMA underrun flag
 573:../Libraries/STM32F4xx_StdPeriph_Driver/src/stm32f4xx_dac.c ****   * @note   The DMA underrun occurs when a second external trigger arrives before the 
 574:../Libraries/STM32F4xx_StdPeriph_Driver/src/stm32f4xx_dac.c ****   *         acknowledgement for the first external trigger is received (first request).
 575:../Libraries/STM32F4xx_StdPeriph_Driver/src/stm32f4xx_dac.c ****   * @retval The new state of DAC_FLAG (SET or RESET).
 576:../Libraries/STM32F4xx_StdPeriph_Driver/src/stm32f4xx_dac.c ****   */
 577:../Libraries/STM32F4xx_StdPeriph_Driver/src/stm32f4xx_dac.c **** FlagStatus DAC_GetFlagStatus(uint32_t DAC_Channel, uint32_t DAC_FLAG)
 578:../Libraries/STM32F4xx_StdPeriph_Driver/src/stm32f4xx_dac.c **** {
 781              		.loc 1 578 0
 782              		.cfi_startproc
 783              		@ args = 0, pretend = 0, frame = 16
 784              		@ frame_needed = 1, uses_anonymous_args = 0
 785              		@ link register save eliminated.
 786 0418 80B4     		push	{r7}
 787              	.LCFI38:
 788              		.cfi_def_cfa_offset 4
 789              		.cfi_offset 7, -4
 790 041a 85B0     		sub	sp, sp, #20
 791              	.LCFI39:
 792              		.cfi_def_cfa_offset 24
 793 041c 00AF     		add	r7, sp, #0
 794              	.LCFI40:
 795              		.cfi_def_cfa_register 7
 796 041e 7860     		str	r0, [r7, #4]
 797 0420 3960     		str	r1, [r7, #0]
 579:../Libraries/STM32F4xx_StdPeriph_Driver/src/stm32f4xx_dac.c ****   FlagStatus bitstatus = RESET;
 798              		.loc 1 579 0
 799 0422 4FF00003 		mov	r3, #0
 800 0426 FB73     		strb	r3, [r7, #15]
 580:../Libraries/STM32F4xx_StdPeriph_Driver/src/stm32f4xx_dac.c ****   /* Check the parameters */
 581:../Libraries/STM32F4xx_StdPeriph_Driver/src/stm32f4xx_dac.c ****   assert_param(IS_DAC_CHANNEL(DAC_Channel));
 582:../Libraries/STM32F4xx_StdPeriph_Driver/src/stm32f4xx_dac.c ****   assert_param(IS_DAC_FLAG(DAC_FLAG));
 583:../Libraries/STM32F4xx_StdPeriph_Driver/src/stm32f4xx_dac.c **** 
 584:../Libraries/STM32F4xx_StdPeriph_Driver/src/stm32f4xx_dac.c ****   /* Check the status of the specified DAC flag */
 585:../Libraries/STM32F4xx_StdPeriph_Driver/src/stm32f4xx_dac.c ****   if ((DAC->SR & (DAC_FLAG << DAC_Channel)) != (uint8_t)RESET)
 801              		.loc 1 585 0
 802 0428 4FF4E843 		mov	r3, #29696
 803 042c C4F20003 		movt	r3, 16384
 804 0430 5A6B     		ldr	r2, [r3, #52]
 805 0432 7B68     		ldr	r3, [r7, #4]
 806 0434 3968     		ldr	r1, [r7, #0]
 807 0436 01FA03F3 		lsl	r3, r1, r3
 808 043a 1340     		ands	r3, r3, r2
 809 043c 002B     		cmp	r3, #0
 810 043e 03D0     		beq	.L29
 586:../Libraries/STM32F4xx_StdPeriph_Driver/src/stm32f4xx_dac.c ****   {
 587:../Libraries/STM32F4xx_StdPeriph_Driver/src/stm32f4xx_dac.c ****     /* DAC_FLAG is set */
 588:../Libraries/STM32F4xx_StdPeriph_Driver/src/stm32f4xx_dac.c ****     bitstatus = SET;
 811              		.loc 1 588 0
 812 0440 4FF00103 		mov	r3, #1
 813 0444 FB73     		strb	r3, [r7, #15]
 814 0446 02E0     		b	.L30
 815              	.L29:
 589:../Libraries/STM32F4xx_StdPeriph_Driver/src/stm32f4xx_dac.c ****   }
 590:../Libraries/STM32F4xx_StdPeriph_Driver/src/stm32f4xx_dac.c ****   else
 591:../Libraries/STM32F4xx_StdPeriph_Driver/src/stm32f4xx_dac.c ****   {
 592:../Libraries/STM32F4xx_StdPeriph_Driver/src/stm32f4xx_dac.c ****     /* DAC_FLAG is reset */
 593:../Libraries/STM32F4xx_StdPeriph_Driver/src/stm32f4xx_dac.c ****     bitstatus = RESET;
 816              		.loc 1 593 0
 817 0448 4FF00003 		mov	r3, #0
 818 044c FB73     		strb	r3, [r7, #15]
 819              	.L30:
 594:../Libraries/STM32F4xx_StdPeriph_Driver/src/stm32f4xx_dac.c ****   }
 595:../Libraries/STM32F4xx_StdPeriph_Driver/src/stm32f4xx_dac.c ****   /* Return the DAC_FLAG status */
 596:../Libraries/STM32F4xx_StdPeriph_Driver/src/stm32f4xx_dac.c ****   return  bitstatus;
 820              		.loc 1 596 0
 821 044e FB7B     		ldrb	r3, [r7, #15]	@ zero_extendqisi2
 597:../Libraries/STM32F4xx_StdPeriph_Driver/src/stm32f4xx_dac.c **** }
 822              		.loc 1 597 0
 823 0450 1846     		mov	r0, r3
 824 0452 07F11407 		add	r7, r7, #20
 825 0456 BD46     		mov	sp, r7
 826 0458 80BC     		pop	{r7}
 827 045a 7047     		bx	lr
 828              		.cfi_endproc
 829              	.LFE123:
 831              		.align	2
 832              		.global	DAC_ClearFlag
 833              		.thumb
 834              		.thumb_func
 836              	DAC_ClearFlag:
 837              	.LFB124:
 598:../Libraries/STM32F4xx_StdPeriph_Driver/src/stm32f4xx_dac.c **** 
 599:../Libraries/STM32F4xx_StdPeriph_Driver/src/stm32f4xx_dac.c **** /**
 600:../Libraries/STM32F4xx_StdPeriph_Driver/src/stm32f4xx_dac.c ****   * @brief  Clears the DAC channel's pending flags.
 601:../Libraries/STM32F4xx_StdPeriph_Driver/src/stm32f4xx_dac.c ****   * @param  DAC_Channel: The selected DAC channel. 
 602:../Libraries/STM32F4xx_StdPeriph_Driver/src/stm32f4xx_dac.c ****   *          This parameter can be one of the following values:
 603:../Libraries/STM32F4xx_StdPeriph_Driver/src/stm32f4xx_dac.c ****   *            @arg DAC_Channel_1: DAC Channel1 selected
 604:../Libraries/STM32F4xx_StdPeriph_Driver/src/stm32f4xx_dac.c ****   *            @arg DAC_Channel_2: DAC Channel2 selected
 605:../Libraries/STM32F4xx_StdPeriph_Driver/src/stm32f4xx_dac.c ****   * @param  DAC_FLAG: specifies the flag to clear. 
 606:../Libraries/STM32F4xx_StdPeriph_Driver/src/stm32f4xx_dac.c ****   *          This parameter can be of the following value:
 607:../Libraries/STM32F4xx_StdPeriph_Driver/src/stm32f4xx_dac.c ****   *            @arg DAC_FLAG_DMAUDR: DMA underrun flag 
 608:../Libraries/STM32F4xx_StdPeriph_Driver/src/stm32f4xx_dac.c ****   * @note   The DMA underrun occurs when a second external trigger arrives before the 
 609:../Libraries/STM32F4xx_StdPeriph_Driver/src/stm32f4xx_dac.c ****   *         acknowledgement for the first external trigger is received (first request).            
 610:../Libraries/STM32F4xx_StdPeriph_Driver/src/stm32f4xx_dac.c ****   * @retval None
 611:../Libraries/STM32F4xx_StdPeriph_Driver/src/stm32f4xx_dac.c ****   */
 612:../Libraries/STM32F4xx_StdPeriph_Driver/src/stm32f4xx_dac.c **** void DAC_ClearFlag(uint32_t DAC_Channel, uint32_t DAC_FLAG)
 613:../Libraries/STM32F4xx_StdPeriph_Driver/src/stm32f4xx_dac.c **** {
 838              		.loc 1 613 0
 839              		.cfi_startproc
 840              		@ args = 0, pretend = 0, frame = 8
 841              		@ frame_needed = 1, uses_anonymous_args = 0
 842              		@ link register save eliminated.
 843 045c 80B4     		push	{r7}
 844              	.LCFI41:
 845              		.cfi_def_cfa_offset 4
 846              		.cfi_offset 7, -4
 847 045e 83B0     		sub	sp, sp, #12
 848              	.LCFI42:
 849              		.cfi_def_cfa_offset 16
 850 0460 00AF     		add	r7, sp, #0
 851              	.LCFI43:
 852              		.cfi_def_cfa_register 7
 853 0462 7860     		str	r0, [r7, #4]
 854 0464 3960     		str	r1, [r7, #0]
 614:../Libraries/STM32F4xx_StdPeriph_Driver/src/stm32f4xx_dac.c ****   /* Check the parameters */
 615:../Libraries/STM32F4xx_StdPeriph_Driver/src/stm32f4xx_dac.c ****   assert_param(IS_DAC_CHANNEL(DAC_Channel));
 616:../Libraries/STM32F4xx_StdPeriph_Driver/src/stm32f4xx_dac.c ****   assert_param(IS_DAC_FLAG(DAC_FLAG));
 617:../Libraries/STM32F4xx_StdPeriph_Driver/src/stm32f4xx_dac.c **** 
 618:../Libraries/STM32F4xx_StdPeriph_Driver/src/stm32f4xx_dac.c ****   /* Clear the selected DAC flags */
 619:../Libraries/STM32F4xx_StdPeriph_Driver/src/stm32f4xx_dac.c ****   DAC->SR = (DAC_FLAG << DAC_Channel);
 855              		.loc 1 619 0
 856 0466 4FF4E843 		mov	r3, #29696
 857 046a C4F20003 		movt	r3, 16384
 858 046e 7A68     		ldr	r2, [r7, #4]
 859 0470 3968     		ldr	r1, [r7, #0]
 860 0472 01FA02F2 		lsl	r2, r1, r2
 861 0476 5A63     		str	r2, [r3, #52]
 620:../Libraries/STM32F4xx_StdPeriph_Driver/src/stm32f4xx_dac.c **** }
 862              		.loc 1 620 0
 863 0478 07F10C07 		add	r7, r7, #12
 864 047c BD46     		mov	sp, r7
 865 047e 80BC     		pop	{r7}
 866 0480 7047     		bx	lr
 867              		.cfi_endproc
 868              	.LFE124:
 870 0482 00BF     		.align	2
 871              		.global	DAC_GetITStatus
 872              		.thumb
 873              		.thumb_func
 875              	DAC_GetITStatus:
 876              	.LFB125:
 621:../Libraries/STM32F4xx_StdPeriph_Driver/src/stm32f4xx_dac.c **** 
 622:../Libraries/STM32F4xx_StdPeriph_Driver/src/stm32f4xx_dac.c **** /**
 623:../Libraries/STM32F4xx_StdPeriph_Driver/src/stm32f4xx_dac.c ****   * @brief  Checks whether the specified DAC interrupt has occurred or not.
 624:../Libraries/STM32F4xx_StdPeriph_Driver/src/stm32f4xx_dac.c ****   * @param  DAC_Channel: The selected DAC channel. 
 625:../Libraries/STM32F4xx_StdPeriph_Driver/src/stm32f4xx_dac.c ****   *          This parameter can be one of the following values:
 626:../Libraries/STM32F4xx_StdPeriph_Driver/src/stm32f4xx_dac.c ****   *            @arg DAC_Channel_1: DAC Channel1 selected
 627:../Libraries/STM32F4xx_StdPeriph_Driver/src/stm32f4xx_dac.c ****   *            @arg DAC_Channel_2: DAC Channel2 selected
 628:../Libraries/STM32F4xx_StdPeriph_Driver/src/stm32f4xx_dac.c ****   * @param  DAC_IT: specifies the DAC interrupt source to check. 
 629:../Libraries/STM32F4xx_StdPeriph_Driver/src/stm32f4xx_dac.c ****   *          This parameter can be the following values:
 630:../Libraries/STM32F4xx_StdPeriph_Driver/src/stm32f4xx_dac.c ****   *            @arg DAC_IT_DMAUDR: DMA underrun interrupt mask
 631:../Libraries/STM32F4xx_StdPeriph_Driver/src/stm32f4xx_dac.c ****   * @note   The DMA underrun occurs when a second external trigger arrives before the 
 632:../Libraries/STM32F4xx_StdPeriph_Driver/src/stm32f4xx_dac.c ****   *         acknowledgement for the first external trigger is received (first request).
 633:../Libraries/STM32F4xx_StdPeriph_Driver/src/stm32f4xx_dac.c ****   * @retval The new state of DAC_IT (SET or RESET).
 634:../Libraries/STM32F4xx_StdPeriph_Driver/src/stm32f4xx_dac.c ****   */
 635:../Libraries/STM32F4xx_StdPeriph_Driver/src/stm32f4xx_dac.c **** ITStatus DAC_GetITStatus(uint32_t DAC_Channel, uint32_t DAC_IT)
 636:../Libraries/STM32F4xx_StdPeriph_Driver/src/stm32f4xx_dac.c **** {
 877              		.loc 1 636 0
 878              		.cfi_startproc
 879              		@ args = 0, pretend = 0, frame = 16
 880              		@ frame_needed = 1, uses_anonymous_args = 0
 881              		@ link register save eliminated.
 882 0484 80B4     		push	{r7}
 883              	.LCFI44:
 884              		.cfi_def_cfa_offset 4
 885              		.cfi_offset 7, -4
 886 0486 85B0     		sub	sp, sp, #20
 887              	.LCFI45:
 888              		.cfi_def_cfa_offset 24
 889 0488 00AF     		add	r7, sp, #0
 890              	.LCFI46:
 891              		.cfi_def_cfa_register 7
 892 048a 7860     		str	r0, [r7, #4]
 893 048c 3960     		str	r1, [r7, #0]
 637:../Libraries/STM32F4xx_StdPeriph_Driver/src/stm32f4xx_dac.c ****   ITStatus bitstatus = RESET;
 894              		.loc 1 637 0
 895 048e 4FF00003 		mov	r3, #0
 896 0492 FB73     		strb	r3, [r7, #15]
 638:../Libraries/STM32F4xx_StdPeriph_Driver/src/stm32f4xx_dac.c ****   uint32_t enablestatus = 0;
 897              		.loc 1 638 0
 898 0494 4FF00003 		mov	r3, #0
 899 0498 BB60     		str	r3, [r7, #8]
 639:../Libraries/STM32F4xx_StdPeriph_Driver/src/stm32f4xx_dac.c ****   
 640:../Libraries/STM32F4xx_StdPeriph_Driver/src/stm32f4xx_dac.c ****   /* Check the parameters */
 641:../Libraries/STM32F4xx_StdPeriph_Driver/src/stm32f4xx_dac.c ****   assert_param(IS_DAC_CHANNEL(DAC_Channel));
 642:../Libraries/STM32F4xx_StdPeriph_Driver/src/stm32f4xx_dac.c ****   assert_param(IS_DAC_IT(DAC_IT));
 643:../Libraries/STM32F4xx_StdPeriph_Driver/src/stm32f4xx_dac.c **** 
 644:../Libraries/STM32F4xx_StdPeriph_Driver/src/stm32f4xx_dac.c ****   /* Get the DAC_IT enable bit status */
 645:../Libraries/STM32F4xx_StdPeriph_Driver/src/stm32f4xx_dac.c ****   enablestatus = (DAC->CR & (DAC_IT << DAC_Channel)) ;
 900              		.loc 1 645 0
 901 049a 4FF4E843 		mov	r3, #29696
 902 049e C4F20003 		movt	r3, 16384
 903 04a2 1A68     		ldr	r2, [r3, #0]
 904 04a4 7B68     		ldr	r3, [r7, #4]
 905 04a6 3968     		ldr	r1, [r7, #0]
 906 04a8 01FA03F3 		lsl	r3, r1, r3
 907 04ac 1340     		ands	r3, r3, r2
 908 04ae BB60     		str	r3, [r7, #8]
 646:../Libraries/STM32F4xx_StdPeriph_Driver/src/stm32f4xx_dac.c ****   
 647:../Libraries/STM32F4xx_StdPeriph_Driver/src/stm32f4xx_dac.c ****   /* Check the status of the specified DAC interrupt */
 648:../Libraries/STM32F4xx_StdPeriph_Driver/src/stm32f4xx_dac.c ****   if (((DAC->SR & (DAC_IT << DAC_Channel)) != (uint32_t)RESET) && enablestatus)
 909              		.loc 1 648 0
 910 04b0 4FF4E843 		mov	r3, #29696
 911 04b4 C4F20003 		movt	r3, 16384
 912 04b8 5A6B     		ldr	r2, [r3, #52]
 913 04ba 7B68     		ldr	r3, [r7, #4]
 914 04bc 3968     		ldr	r1, [r7, #0]
 915 04be 01FA03F3 		lsl	r3, r1, r3
 916 04c2 1340     		ands	r3, r3, r2
 917 04c4 002B     		cmp	r3, #0
 918 04c6 06D0     		beq	.L33
 919              		.loc 1 648 0 is_stmt 0 discriminator 1
 920 04c8 BB68     		ldr	r3, [r7, #8]
 921 04ca 002B     		cmp	r3, #0
 922 04cc 03D0     		beq	.L33
 649:../Libraries/STM32F4xx_StdPeriph_Driver/src/stm32f4xx_dac.c ****   {
 650:../Libraries/STM32F4xx_StdPeriph_Driver/src/stm32f4xx_dac.c ****     /* DAC_IT is set */
 651:../Libraries/STM32F4xx_StdPeriph_Driver/src/stm32f4xx_dac.c ****     bitstatus = SET;
 923              		.loc 1 651 0 is_stmt 1
 924 04ce 4FF00103 		mov	r3, #1
 925 04d2 FB73     		strb	r3, [r7, #15]
 926 04d4 02E0     		b	.L34
 927              	.L33:
 652:../Libraries/STM32F4xx_StdPeriph_Driver/src/stm32f4xx_dac.c ****   }
 653:../Libraries/STM32F4xx_StdPeriph_Driver/src/stm32f4xx_dac.c ****   else
 654:../Libraries/STM32F4xx_StdPeriph_Driver/src/stm32f4xx_dac.c ****   {
 655:../Libraries/STM32F4xx_StdPeriph_Driver/src/stm32f4xx_dac.c ****     /* DAC_IT is reset */
 656:../Libraries/STM32F4xx_StdPeriph_Driver/src/stm32f4xx_dac.c ****     bitstatus = RESET;
 928              		.loc 1 656 0
 929 04d6 4FF00003 		mov	r3, #0
 930 04da FB73     		strb	r3, [r7, #15]
 931              	.L34:
 657:../Libraries/STM32F4xx_StdPeriph_Driver/src/stm32f4xx_dac.c ****   }
 658:../Libraries/STM32F4xx_StdPeriph_Driver/src/stm32f4xx_dac.c ****   /* Return the DAC_IT status */
 659:../Libraries/STM32F4xx_StdPeriph_Driver/src/stm32f4xx_dac.c ****   return  bitstatus;
 932              		.loc 1 659 0
 933 04dc FB7B     		ldrb	r3, [r7, #15]	@ zero_extendqisi2
 660:../Libraries/STM32F4xx_StdPeriph_Driver/src/stm32f4xx_dac.c **** }
 934              		.loc 1 660 0
 935 04de 1846     		mov	r0, r3
 936 04e0 07F11407 		add	r7, r7, #20
 937 04e4 BD46     		mov	sp, r7
 938 04e6 80BC     		pop	{r7}
 939 04e8 7047     		bx	lr
 940              		.cfi_endproc
 941              	.LFE125:
 943 04ea 00BF     		.align	2
 944              		.global	DAC_ClearITPendingBit
 945              		.thumb
 946              		.thumb_func
 948              	DAC_ClearITPendingBit:
 949              	.LFB126:
 661:../Libraries/STM32F4xx_StdPeriph_Driver/src/stm32f4xx_dac.c **** 
 662:../Libraries/STM32F4xx_StdPeriph_Driver/src/stm32f4xx_dac.c **** /**
 663:../Libraries/STM32F4xx_StdPeriph_Driver/src/stm32f4xx_dac.c ****   * @brief  Clears the DAC channel's interrupt pending bits.
 664:../Libraries/STM32F4xx_StdPeriph_Driver/src/stm32f4xx_dac.c ****   * @param  DAC_Channel: The selected DAC channel. 
 665:../Libraries/STM32F4xx_StdPeriph_Driver/src/stm32f4xx_dac.c ****   *          This parameter can be one of the following values:
 666:../Libraries/STM32F4xx_StdPeriph_Driver/src/stm32f4xx_dac.c ****   *            @arg DAC_Channel_1: DAC Channel1 selected
 667:../Libraries/STM32F4xx_StdPeriph_Driver/src/stm32f4xx_dac.c ****   *            @arg DAC_Channel_2: DAC Channel2 selected
 668:../Libraries/STM32F4xx_StdPeriph_Driver/src/stm32f4xx_dac.c ****   * @param  DAC_IT: specifies the DAC interrupt pending bit to clear.
 669:../Libraries/STM32F4xx_StdPeriph_Driver/src/stm32f4xx_dac.c ****   *          This parameter can be the following values:
 670:../Libraries/STM32F4xx_StdPeriph_Driver/src/stm32f4xx_dac.c ****   *            @arg DAC_IT_DMAUDR: DMA underrun interrupt mask                         
 671:../Libraries/STM32F4xx_StdPeriph_Driver/src/stm32f4xx_dac.c ****   * @note   The DMA underrun occurs when a second external trigger arrives before the 
 672:../Libraries/STM32F4xx_StdPeriph_Driver/src/stm32f4xx_dac.c ****   *         acknowledgement for the first external trigger is received (first request).            
 673:../Libraries/STM32F4xx_StdPeriph_Driver/src/stm32f4xx_dac.c ****   * @retval None
 674:../Libraries/STM32F4xx_StdPeriph_Driver/src/stm32f4xx_dac.c ****   */
 675:../Libraries/STM32F4xx_StdPeriph_Driver/src/stm32f4xx_dac.c **** void DAC_ClearITPendingBit(uint32_t DAC_Channel, uint32_t DAC_IT)
 676:../Libraries/STM32F4xx_StdPeriph_Driver/src/stm32f4xx_dac.c **** {
 950              		.loc 1 676 0
 951              		.cfi_startproc
 952              		@ args = 0, pretend = 0, frame = 8
 953              		@ frame_needed = 1, uses_anonymous_args = 0
 954              		@ link register save eliminated.
 955 04ec 80B4     		push	{r7}
 956              	.LCFI47:
 957              		.cfi_def_cfa_offset 4
 958              		.cfi_offset 7, -4
 959 04ee 83B0     		sub	sp, sp, #12
 960              	.LCFI48:
 961              		.cfi_def_cfa_offset 16
 962 04f0 00AF     		add	r7, sp, #0
 963              	.LCFI49:
 964              		.cfi_def_cfa_register 7
 965 04f2 7860     		str	r0, [r7, #4]
 966 04f4 3960     		str	r1, [r7, #0]
 677:../Libraries/STM32F4xx_StdPeriph_Driver/src/stm32f4xx_dac.c ****   /* Check the parameters */
 678:../Libraries/STM32F4xx_StdPeriph_Driver/src/stm32f4xx_dac.c ****   assert_param(IS_DAC_CHANNEL(DAC_Channel));
 679:../Libraries/STM32F4xx_StdPeriph_Driver/src/stm32f4xx_dac.c ****   assert_param(IS_DAC_IT(DAC_IT)); 
 680:../Libraries/STM32F4xx_StdPeriph_Driver/src/stm32f4xx_dac.c **** 
 681:../Libraries/STM32F4xx_StdPeriph_Driver/src/stm32f4xx_dac.c ****   /* Clear the selected DAC interrupt pending bits */
 682:../Libraries/STM32F4xx_StdPeriph_Driver/src/stm32f4xx_dac.c ****   DAC->SR = (DAC_IT << DAC_Channel);
 967              		.loc 1 682 0
 968 04f6 4FF4E843 		mov	r3, #29696
 969 04fa C4F20003 		movt	r3, 16384
 970 04fe 7A68     		ldr	r2, [r7, #4]
 971 0500 3968     		ldr	r1, [r7, #0]
 972 0502 01FA02F2 		lsl	r2, r1, r2
 973 0506 5A63     		str	r2, [r3, #52]
 683:../Libraries/STM32F4xx_StdPeriph_Driver/src/stm32f4xx_dac.c **** }
 974              		.loc 1 683 0
 975 0508 07F10C07 		add	r7, r7, #12
 976 050c BD46     		mov	sp, r7
 977 050e 80BC     		pop	{r7}
 978 0510 7047     		bx	lr
 979              		.cfi_endproc
 980              	.LFE126:
 982              	.Letext0:
 983              		.file 2 "c:\\program files (x86)\\codesourcery\\eabi\\bin\\../lib/gcc/arm-none-eabi/4.6.3/../../..
 984              		.file 3 "C:\\Users\\Jure\\workspace\\TemplateProject\\Libraries\\Device\\STM32F4xx\\Include/stm32f
 985              		.file 4 "C:\\Users\\Jure\\workspace\\TemplateProject\\Libraries\\STM32F4xx_StdPeriph_Driver\\inc/s
 986              		.file 5 "C:\\Users\\Jure\\workspace\\TemplateProject\\Libraries\\CMSIS\\Include/core_cm4.h"