   1              		.syntax unified
   2              		.cpu cortex-m4
   3              		.fpu softvfp
   4              		.eabi_attribute 20, 1
   5              		.eabi_attribute 21, 1
   6              		.eabi_attribute 23, 3
   7              		.eabi_attribute 24, 1
   8              		.eabi_attribute 25, 1
   9              		.eabi_attribute 26, 1
  10              		.eabi_attribute 30, 6
  11              		.eabi_attribute 34, 1
  12              		.eabi_attribute 18, 4
  13              		.thumb
  14              		.file	"gps.c"
  15              		.text
  16              	.Ltext0:
  17              		.cfi_sections	.debug_frame
  18              		.comm	GPS_DataBuffer,64,4
  19              		.comm	GPS_RECDATA,64,4
  20              		.comm	GPS_Digits,16,4
  21              		.global	GPS_ProcesState
  22              		.bss
  25              	GPS_ProcesState:
  26 0000 00       		.space	1
  27              		.global	GPS_NextData
  30              	GPS_NextData:
  31 0001 00       		.space	1
  32              		.global	GPS_Checksum
  35              	GPS_Checksum:
  36 0002 00       		.space	1
  37              		.global	GPS_Checksum_Save
  40              	GPS_Checksum_Save:
  41 0003 00       		.space	1
  42              		.comm	GPS_ReceivedChecksum,2,4
  43              		.global	GPS_ChecksumCounter
  46              	GPS_ChecksumCounter:
  47 0004 00       		.space	1
  48              		.global	GPS_DataTemp
  49 0005 00       		.align	1
  52              	GPS_DataTemp:
  53 0006 0000     		.space	2
  54              		.global	GPS_DataTemp_Count
  57              	GPS_DataTemp_Count:
  58 0008 00       		.space	1
  59              		.global	GPS_Digits_Count
  62              	GPS_Digits_Count:
  63 0009 00       		.space	1
  64              		.comm	GPSFlag,8,4
  65              		.text
  66              		.align	2
  67              		.global	GPSStopOutput
  68              		.thumb
  69              		.thumb_func
  71              	GPSStopOutput:
  72              	.LFB110:
  73              		.file 1 "../src/gps.c"
   1:../src/gps.c  **** /*
   2:../src/gps.c  ****  * gps.c
   3:../src/gps.c  ****  *
   4:../src/gps.c  ****  *  Created on: Oct 21, 2012
   5:../src/gps.c  ****  *      Author: Jure
   6:../src/gps.c  ****  */
   7:../src/gps.c  **** 
   8:../src/gps.c  **** #include "allinclude.h"
   9:../src/gps.c  **** uint8_t GPS_DataBuffer[64];
  10:../src/gps.c  **** uint16_t GPS_RECDATA[32];
  11:../src/gps.c  **** uint8_t GPS_Digits[16];
  12:../src/gps.c  **** uint8_t GPS_ProcesState = 0;
  13:../src/gps.c  **** uint8_t GPS_NextData = 0;
  14:../src/gps.c  **** uint8_t GPS_Checksum = 0;
  15:../src/gps.c  **** uint8_t GPS_Checksum_Save = 0;
  16:../src/gps.c  **** uint8_t GPS_ReceivedChecksum[2];
  17:../src/gps.c  **** uint8_t GPS_ChecksumCounter = 0;
  18:../src/gps.c  **** uint16_t GPS_DataTemp = 0;
  19:../src/gps.c  **** uint8_t GPS_DataTemp_Count = 0;
  20:../src/gps.c  **** uint8_t GPS_Digits_Count = 0;
  21:../src/gps.c  **** // Flag variable
  22:../src/gps.c  **** Flag GPSFlag;
  23:../src/gps.c  **** 
  24:../src/gps.c  **** void GPSStopOutput(void)
  25:../src/gps.c  **** {
  74              		.loc 1 25 0
  75              		.cfi_startproc
  76              		@ args = 0, pretend = 0, frame = 16
  77              		@ frame_needed = 1, uses_anonymous_args = 0
  78 0000 80B5     		push	{r7, lr}
  79              	.LCFI0:
  80              		.cfi_def_cfa_offset 8
  81              		.cfi_offset 14, -4
  82              		.cfi_offset 7, -8
  83 0002 84B0     		sub	sp, sp, #16
  84              	.LCFI1:
  85              		.cfi_def_cfa_offset 24
  86 0004 00AF     		add	r7, sp, #0
  87              	.LCFI2:
  88              		.cfi_def_cfa_register 7
  26:../src/gps.c  **** 	int numbytes = 0;
  89              		.loc 1 26 0
  90 0006 4FF00003 		mov	r3, #0
  91 000a FB60     		str	r3, [r7, #12]
  27:../src/gps.c  **** 	int i = 0;
  92              		.loc 1 27 0
  93 000c 4FF00003 		mov	r3, #0
  94 0010 BB60     		str	r3, [r7, #8]
  28:../src/gps.c  **** 	uint8_t checksum = 0;
  95              		.loc 1 28 0
  96 0012 4FF00003 		mov	r3, #0
  97 0016 FB71     		strb	r3, [r7, #7]
  29:../src/gps.c  **** 	// Mark GPS is sending data
  30:../src/gps.c  **** 	GPS_SENDING = 1;
  98              		.loc 1 30 0
  99 0018 40F20003 		movw	r3, #:lower16:flag0
 100 001c C0F20003 		movt	r3, #:upper16:flag0
 101 0020 1A78     		ldrb	r2, [r3, #0]
 102 0022 42F02002 		orr	r2, r2, #32
 103 0026 1A70     		strb	r2, [r3, #0]
  31:../src/gps.c  **** 	// Fill data
  32:../src/gps.c  **** 	GPS_DataBuffer[0] = '$';	// Preamble, $ sign
 104              		.loc 1 32 0
 105 0028 40F20003 		movw	r3, #:lower16:GPS_DataBuffer
 106 002c C0F20003 		movt	r3, #:upper16:GPS_DataBuffer
 107 0030 4FF02402 		mov	r2, #36
 108 0034 1A70     		strb	r2, [r3, #0]
  33:../src/gps.c  **** 	GPS_DataBuffer[1] = 'P';
 109              		.loc 1 33 0
 110 0036 40F20003 		movw	r3, #:lower16:GPS_DataBuffer
 111 003a C0F20003 		movt	r3, #:upper16:GPS_DataBuffer
 112 003e 4FF05002 		mov	r2, #80
 113 0042 5A70     		strb	r2, [r3, #1]
  34:../src/gps.c  **** 	GPS_DataBuffer[2] = 'M';
 114              		.loc 1 34 0
 115 0044 40F20003 		movw	r3, #:lower16:GPS_DataBuffer
 116 0048 C0F20003 		movt	r3, #:upper16:GPS_DataBuffer
 117 004c 4FF04D02 		mov	r2, #77
 118 0050 9A70     		strb	r2, [r3, #2]
  35:../src/gps.c  **** 	GPS_DataBuffer[3] = 'T';
 119              		.loc 1 35 0
 120 0052 40F20003 		movw	r3, #:lower16:GPS_DataBuffer
 121 0056 C0F20003 		movt	r3, #:upper16:GPS_DataBuffer
 122 005a 4FF05402 		mov	r2, #84
 123 005e DA70     		strb	r2, [r3, #3]
  36:../src/gps.c  **** 	GPS_DataBuffer[4] = 'K';
 124              		.loc 1 36 0
 125 0060 40F20003 		movw	r3, #:lower16:GPS_DataBuffer
 126 0064 C0F20003 		movt	r3, #:upper16:GPS_DataBuffer
 127 0068 4FF04B02 		mov	r2, #75
 128 006c 1A71     		strb	r2, [r3, #4]
  37:../src/gps.c  **** 	GPS_DataBuffer[5] = '3';
 129              		.loc 1 37 0
 130 006e 40F20003 		movw	r3, #:lower16:GPS_DataBuffer
 131 0072 C0F20003 		movt	r3, #:upper16:GPS_DataBuffer
 132 0076 4FF03302 		mov	r2, #51
 133 007a 5A71     		strb	r2, [r3, #5]
  38:../src/gps.c  **** 	GPS_DataBuffer[6] = '1';
 134              		.loc 1 38 0
 135 007c 40F20003 		movw	r3, #:lower16:GPS_DataBuffer
 136 0080 C0F20003 		movt	r3, #:upper16:GPS_DataBuffer
 137 0084 4FF03102 		mov	r2, #49
 138 0088 9A71     		strb	r2, [r3, #6]
  39:../src/gps.c  **** 	GPS_DataBuffer[7] = '4';
 139              		.loc 1 39 0
 140 008a 40F20003 		movw	r3, #:lower16:GPS_DataBuffer
 141 008e C0F20003 		movt	r3, #:upper16:GPS_DataBuffer
 142 0092 4FF03402 		mov	r2, #52
 143 0096 DA71     		strb	r2, [r3, #7]
  40:../src/gps.c  **** 	numbytes = 8;
 144              		.loc 1 40 0
 145 0098 4FF00803 		mov	r3, #8
 146 009c FB60     		str	r3, [r7, #12]
  41:../src/gps.c  **** 	for(i = 0; i < 19; i++)
 147              		.loc 1 41 0
 148 009e 4FF00003 		mov	r3, #0
 149 00a2 BB60     		str	r3, [r7, #8]
 150 00a4 1AE0     		b	.L2
 151              	.L3:
  42:../src/gps.c  **** 	{
  43:../src/gps.c  **** 		GPS_DataBuffer[numbytes] = ',';
 152              		.loc 1 43 0 discriminator 2
 153 00a6 40F20003 		movw	r3, #:lower16:GPS_DataBuffer
 154 00aa C0F20003 		movt	r3, #:upper16:GPS_DataBuffer
 155 00ae FA68     		ldr	r2, [r7, #12]
 156 00b0 9B18     		adds	r3, r3, r2
 157 00b2 4FF02C02 		mov	r2, #44
 158 00b6 1A70     		strb	r2, [r3, #0]
  44:../src/gps.c  **** 		GPS_DataBuffer[numbytes + 1] = '0';
 159              		.loc 1 44 0 discriminator 2
 160 00b8 FB68     		ldr	r3, [r7, #12]
 161 00ba 03F10102 		add	r2, r3, #1
 162 00be 40F20003 		movw	r3, #:lower16:GPS_DataBuffer
 163 00c2 C0F20003 		movt	r3, #:upper16:GPS_DataBuffer
 164 00c6 4FF03001 		mov	r1, #48
 165 00ca 9954     		strb	r1, [r3, r2]
  45:../src/gps.c  **** 		numbytes += 2;
 166              		.loc 1 45 0 discriminator 2
 167 00cc FB68     		ldr	r3, [r7, #12]
 168 00ce 03F10203 		add	r3, r3, #2
 169 00d2 FB60     		str	r3, [r7, #12]
  41:../src/gps.c  **** 	for(i = 0; i < 19; i++)
 170              		.loc 1 41 0 discriminator 2
 171 00d4 BB68     		ldr	r3, [r7, #8]
 172 00d6 03F10103 		add	r3, r3, #1
 173 00da BB60     		str	r3, [r7, #8]
 174              	.L2:
  41:../src/gps.c  **** 	for(i = 0; i < 19; i++)
 175              		.loc 1 41 0 is_stmt 0 discriminator 1
 176 00dc BB68     		ldr	r3, [r7, #8]
 177 00de 122B     		cmp	r3, #18
 178 00e0 E1DD     		ble	.L3
  46:../src/gps.c  **** 	}
  47:../src/gps.c  **** 	GPS_DataBuffer[numbytes] = '*';
 179              		.loc 1 47 0 is_stmt 1
 180 00e2 40F20003 		movw	r3, #:lower16:GPS_DataBuffer
 181 00e6 C0F20003 		movt	r3, #:upper16:GPS_DataBuffer
 182 00ea FA68     		ldr	r2, [r7, #12]
 183 00ec 9B18     		adds	r3, r3, r2
 184 00ee 4FF02A02 		mov	r2, #42
 185 00f2 1A70     		strb	r2, [r3, #0]
  48:../src/gps.c  **** 	numbytes++;
 186              		.loc 1 48 0
 187 00f4 FB68     		ldr	r3, [r7, #12]
 188 00f6 03F10103 		add	r3, r3, #1
 189 00fa FB60     		str	r3, [r7, #12]
  49:../src/gps.c  **** 	checksum = GPS_CalculateChecksum(GPS_DataBuffer, 1, 46);
 190              		.loc 1 49 0
 191 00fc 40F20000 		movw	r0, #:lower16:GPS_DataBuffer
 192 0100 C0F20000 		movt	r0, #:upper16:GPS_DataBuffer
 193 0104 4FF00101 		mov	r1, #1
 194 0108 4FF02E02 		mov	r2, #46
 195 010c FFF7FEFF 		bl	GPS_CalculateChecksum
 196 0110 0346     		mov	r3, r0
 197 0112 FB71     		strb	r3, [r7, #7]
  50:../src/gps.c  **** 	// Convert number to ASCII
  51:../src/gps.c  **** 	GPS_DataBuffer[numbytes] = GPS_GetChar(checksum, SET);
 198              		.loc 1 51 0
 199 0114 FB79     		ldrb	r3, [r7, #7]	@ zero_extendqisi2
 200 0116 1846     		mov	r0, r3
 201 0118 4FF00101 		mov	r1, #1
 202 011c FFF7FEFF 		bl	GPS_GetChar
 203 0120 0346     		mov	r3, r0
 204 0122 1A46     		mov	r2, r3
 205 0124 40F20003 		movw	r3, #:lower16:GPS_DataBuffer
 206 0128 C0F20003 		movt	r3, #:upper16:GPS_DataBuffer
 207 012c F968     		ldr	r1, [r7, #12]
 208 012e 5B18     		adds	r3, r3, r1
 209 0130 1A70     		strb	r2, [r3, #0]
  52:../src/gps.c  **** 	numbytes++;
 210              		.loc 1 52 0
 211 0132 FB68     		ldr	r3, [r7, #12]
 212 0134 03F10103 		add	r3, r3, #1
 213 0138 FB60     		str	r3, [r7, #12]
  53:../src/gps.c  **** 	GPS_DataBuffer[numbytes] = GPS_GetChar(checksum, RESET);
 214              		.loc 1 53 0
 215 013a FB79     		ldrb	r3, [r7, #7]	@ zero_extendqisi2
 216 013c 1846     		mov	r0, r3
 217 013e 4FF00001 		mov	r1, #0
 218 0142 FFF7FEFF 		bl	GPS_GetChar
 219 0146 0346     		mov	r3, r0
 220 0148 1A46     		mov	r2, r3
 221 014a 40F20003 		movw	r3, #:lower16:GPS_DataBuffer
 222 014e C0F20003 		movt	r3, #:upper16:GPS_DataBuffer
 223 0152 F968     		ldr	r1, [r7, #12]
 224 0154 5B18     		adds	r3, r3, r1
 225 0156 1A70     		strb	r2, [r3, #0]
  54:../src/gps.c  **** 	numbytes++;
 226              		.loc 1 54 0
 227 0158 FB68     		ldr	r3, [r7, #12]
 228 015a 03F10103 		add	r3, r3, #1
 229 015e FB60     		str	r3, [r7, #12]
  55:../src/gps.c  **** 	GPS_DataBuffer[numbytes] = 0x0d;	// ASCII <CR>
 230              		.loc 1 55 0
 231 0160 40F20003 		movw	r3, #:lower16:GPS_DataBuffer
 232 0164 C0F20003 		movt	r3, #:upper16:GPS_DataBuffer
 233 0168 FA68     		ldr	r2, [r7, #12]
 234 016a 9B18     		adds	r3, r3, r2
 235 016c 4FF00D02 		mov	r2, #13
 236 0170 1A70     		strb	r2, [r3, #0]
  56:../src/gps.c  **** 	numbytes++;
 237              		.loc 1 56 0
 238 0172 FB68     		ldr	r3, [r7, #12]
 239 0174 03F10103 		add	r3, r3, #1
 240 0178 FB60     		str	r3, [r7, #12]
  57:../src/gps.c  **** 	GPS_DataBuffer[numbytes] = 0x0a;	// ASCII <LF>
 241              		.loc 1 57 0
 242 017a 40F20003 		movw	r3, #:lower16:GPS_DataBuffer
 243 017e C0F20003 		movt	r3, #:upper16:GPS_DataBuffer
 244 0182 FA68     		ldr	r2, [r7, #12]
 245 0184 9B18     		adds	r3, r3, r2
 246 0186 4FF00A02 		mov	r2, #10
 247 018a 1A70     		strb	r2, [r3, #0]
  58:../src/gps.c  **** 	numbytes++;
 248              		.loc 1 58 0
 249 018c FB68     		ldr	r3, [r7, #12]
 250 018e 03F10103 		add	r3, r3, #1
 251 0192 FB60     		str	r3, [r7, #12]
  59:../src/gps.c  **** 
  60:../src/gps.c  **** 	// Send to DMA
  61:../src/gps.c  **** 	transferDMA_USART3(GPS_DataBuffer, numbytes);
 252              		.loc 1 61 0
 253 0194 40F20000 		movw	r0, #:lower16:GPS_DataBuffer
 254 0198 C0F20000 		movt	r0, #:upper16:GPS_DataBuffer
 255 019c F968     		ldr	r1, [r7, #12]
 256 019e FFF7FEFF 		bl	transferDMA_USART3
  62:../src/gps.c  **** }
 257              		.loc 1 62 0
 258 01a2 07F11007 		add	r7, r7, #16
 259 01a6 BD46     		mov	sp, r7
 260 01a8 80BD     		pop	{r7, pc}
 261              		.cfi_endproc
 262              	.LFE110:
 264 01aa 00BF     		.align	2
 265              		.global	GPSSetDataOutput
 266              		.thumb
 267              		.thumb_func
 269              	GPSSetDataOutput:
 270              	.LFB111:
  63:../src/gps.c  **** 
  64:../src/gps.c  **** void GPSSetDataOutput(void)
  65:../src/gps.c  **** {
 271              		.loc 1 65 0
 272              		.cfi_startproc
 273              		@ args = 0, pretend = 0, frame = 16
 274              		@ frame_needed = 1, uses_anonymous_args = 0
 275 01ac 80B5     		push	{r7, lr}
 276              	.LCFI3:
 277              		.cfi_def_cfa_offset 8
 278              		.cfi_offset 14, -4
 279              		.cfi_offset 7, -8
 280 01ae 84B0     		sub	sp, sp, #16
 281              	.LCFI4:
 282              		.cfi_def_cfa_offset 24
 283 01b0 00AF     		add	r7, sp, #0
 284              	.LCFI5:
 285              		.cfi_def_cfa_register 7
  66:../src/gps.c  **** 	int numbytes = 0;
 286              		.loc 1 66 0
 287 01b2 4FF00003 		mov	r3, #0
 288 01b6 FB60     		str	r3, [r7, #12]
  67:../src/gps.c  **** 	int i = 0;
 289              		.loc 1 67 0
 290 01b8 4FF00003 		mov	r3, #0
 291 01bc BB60     		str	r3, [r7, #8]
  68:../src/gps.c  **** 	uint8_t checksum = 0;
 292              		.loc 1 68 0
 293 01be 4FF00003 		mov	r3, #0
 294 01c2 FB71     		strb	r3, [r7, #7]
  69:../src/gps.c  **** 	// Mark GPS is sending data
  70:../src/gps.c  **** 	GPS_SENDING = 1;
 295              		.loc 1 70 0
 296 01c4 40F20003 		movw	r3, #:lower16:flag0
 297 01c8 C0F20003 		movt	r3, #:upper16:flag0
 298 01cc 1A78     		ldrb	r2, [r3, #0]
 299 01ce 42F02002 		orr	r2, r2, #32
 300 01d2 1A70     		strb	r2, [r3, #0]
  71:../src/gps.c  **** 	// Fill data
  72:../src/gps.c  **** 	GPS_DataBuffer[0] = '$';	// Preamble, $ sign
 301              		.loc 1 72 0
 302 01d4 40F20003 		movw	r3, #:lower16:GPS_DataBuffer
 303 01d8 C0F20003 		movt	r3, #:upper16:GPS_DataBuffer
 304 01dc 4FF02402 		mov	r2, #36
 305 01e0 1A70     		strb	r2, [r3, #0]
  73:../src/gps.c  **** 	GPS_DataBuffer[1] = 'P';
 306              		.loc 1 73 0
 307 01e2 40F20003 		movw	r3, #:lower16:GPS_DataBuffer
 308 01e6 C0F20003 		movt	r3, #:upper16:GPS_DataBuffer
 309 01ea 4FF05002 		mov	r2, #80
 310 01ee 5A70     		strb	r2, [r3, #1]
  74:../src/gps.c  **** 	GPS_DataBuffer[2] = 'M';
 311              		.loc 1 74 0
 312 01f0 40F20003 		movw	r3, #:lower16:GPS_DataBuffer
 313 01f4 C0F20003 		movt	r3, #:upper16:GPS_DataBuffer
 314 01f8 4FF04D02 		mov	r2, #77
 315 01fc 9A70     		strb	r2, [r3, #2]
  75:../src/gps.c  **** 	GPS_DataBuffer[3] = 'T';
 316              		.loc 1 75 0
 317 01fe 40F20003 		movw	r3, #:lower16:GPS_DataBuffer
 318 0202 C0F20003 		movt	r3, #:upper16:GPS_DataBuffer
 319 0206 4FF05402 		mov	r2, #84
 320 020a DA70     		strb	r2, [r3, #3]
  76:../src/gps.c  **** 	GPS_DataBuffer[4] = 'K';
 321              		.loc 1 76 0
 322 020c 40F20003 		movw	r3, #:lower16:GPS_DataBuffer
 323 0210 C0F20003 		movt	r3, #:upper16:GPS_DataBuffer
 324 0214 4FF04B02 		mov	r2, #75
 325 0218 1A71     		strb	r2, [r3, #4]
  77:../src/gps.c  **** 	GPS_DataBuffer[5] = '3';
 326              		.loc 1 77 0
 327 021a 40F20003 		movw	r3, #:lower16:GPS_DataBuffer
 328 021e C0F20003 		movt	r3, #:upper16:GPS_DataBuffer
 329 0222 4FF03302 		mov	r2, #51
 330 0226 5A71     		strb	r2, [r3, #5]
  78:../src/gps.c  **** 	GPS_DataBuffer[6] = '1';
 331              		.loc 1 78 0
 332 0228 40F20003 		movw	r3, #:lower16:GPS_DataBuffer
 333 022c C0F20003 		movt	r3, #:upper16:GPS_DataBuffer
 334 0230 4FF03102 		mov	r2, #49
 335 0234 9A71     		strb	r2, [r3, #6]
  79:../src/gps.c  **** 	GPS_DataBuffer[7] = '4';
 336              		.loc 1 79 0
 337 0236 40F20003 		movw	r3, #:lower16:GPS_DataBuffer
 338 023a C0F20003 		movt	r3, #:upper16:GPS_DataBuffer
 339 023e 4FF03402 		mov	r2, #52
 340 0242 DA71     		strb	r2, [r3, #7]
  80:../src/gps.c  **** 	numbytes = 8;
 341              		.loc 1 80 0
 342 0244 4FF00803 		mov	r3, #8
 343 0248 FB60     		str	r3, [r7, #12]
  81:../src/gps.c  **** 	for(i = 0; i < 19; i++)
 344              		.loc 1 81 0
 345 024a 4FF00003 		mov	r3, #0
 346 024e BB60     		str	r3, [r7, #8]
 347 0250 1AE0     		b	.L5
 348              	.L6:
  82:../src/gps.c  **** 	{
  83:../src/gps.c  **** 		GPS_DataBuffer[numbytes] = ',';
 349              		.loc 1 83 0 discriminator 2
 350 0252 40F20003 		movw	r3, #:lower16:GPS_DataBuffer
 351 0256 C0F20003 		movt	r3, #:upper16:GPS_DataBuffer
 352 025a FA68     		ldr	r2, [r7, #12]
 353 025c 9B18     		adds	r3, r3, r2
 354 025e 4FF02C02 		mov	r2, #44
 355 0262 1A70     		strb	r2, [r3, #0]
  84:../src/gps.c  **** 		GPS_DataBuffer[numbytes + 1] = '0';
 356              		.loc 1 84 0 discriminator 2
 357 0264 FB68     		ldr	r3, [r7, #12]
 358 0266 03F10102 		add	r2, r3, #1
 359 026a 40F20003 		movw	r3, #:lower16:GPS_DataBuffer
 360 026e C0F20003 		movt	r3, #:upper16:GPS_DataBuffer
 361 0272 4FF03001 		mov	r1, #48
 362 0276 9954     		strb	r1, [r3, r2]
  85:../src/gps.c  **** 		numbytes += 2;
 363              		.loc 1 85 0 discriminator 2
 364 0278 FB68     		ldr	r3, [r7, #12]
 365 027a 03F10203 		add	r3, r3, #2
 366 027e FB60     		str	r3, [r7, #12]
  81:../src/gps.c  **** 	for(i = 0; i < 19; i++)
 367              		.loc 1 81 0 discriminator 2
 368 0280 BB68     		ldr	r3, [r7, #8]
 369 0282 03F10103 		add	r3, r3, #1
 370 0286 BB60     		str	r3, [r7, #8]
 371              	.L5:
  81:../src/gps.c  **** 	for(i = 0; i < 19; i++)
 372              		.loc 1 81 0 is_stmt 0 discriminator 1
 373 0288 BB68     		ldr	r3, [r7, #8]
 374 028a 122B     		cmp	r3, #18
 375 028c E1DD     		ble	.L6
  86:../src/gps.c  **** 	}
  87:../src/gps.c  **** 	// Set GGA to 1
  88:../src/gps.c  **** 	GPS_DataBuffer[15] = '1';
 376              		.loc 1 88 0 is_stmt 1
 377 028e 40F20003 		movw	r3, #:lower16:GPS_DataBuffer
 378 0292 C0F20003 		movt	r3, #:upper16:GPS_DataBuffer
 379 0296 4FF03102 		mov	r2, #49
 380 029a DA73     		strb	r2, [r3, #15]
  89:../src/gps.c  **** 	// Set RMC to 1
  90:../src/gps.c  **** 	GPS_DataBuffer[11] = '1';
 381              		.loc 1 90 0
 382 029c 40F20003 		movw	r3, #:lower16:GPS_DataBuffer
 383 02a0 C0F20003 		movt	r3, #:upper16:GPS_DataBuffer
 384 02a4 4FF03102 		mov	r2, #49
 385 02a8 DA72     		strb	r2, [r3, #11]
  91:../src/gps.c  **** 	GPS_DataBuffer[numbytes] = '*';
 386              		.loc 1 91 0
 387 02aa 40F20003 		movw	r3, #:lower16:GPS_DataBuffer
 388 02ae C0F20003 		movt	r3, #:upper16:GPS_DataBuffer
 389 02b2 FA68     		ldr	r2, [r7, #12]
 390 02b4 9B18     		adds	r3, r3, r2
 391 02b6 4FF02A02 		mov	r2, #42
 392 02ba 1A70     		strb	r2, [r3, #0]
  92:../src/gps.c  **** 	numbytes++;
 393              		.loc 1 92 0
 394 02bc FB68     		ldr	r3, [r7, #12]
 395 02be 03F10103 		add	r3, r3, #1
 396 02c2 FB60     		str	r3, [r7, #12]
  93:../src/gps.c  **** 	checksum = GPS_CalculateChecksum(GPS_DataBuffer, 1, 46);
 397              		.loc 1 93 0
 398 02c4 40F20000 		movw	r0, #:lower16:GPS_DataBuffer
 399 02c8 C0F20000 		movt	r0, #:upper16:GPS_DataBuffer
 400 02cc 4FF00101 		mov	r1, #1
 401 02d0 4FF02E02 		mov	r2, #46
 402 02d4 FFF7FEFF 		bl	GPS_CalculateChecksum
 403 02d8 0346     		mov	r3, r0
 404 02da FB71     		strb	r3, [r7, #7]
  94:../src/gps.c  **** 	// Convert number to ASCII
  95:../src/gps.c  **** 	GPS_DataBuffer[numbytes] = GPS_GetChar(checksum, SET);
 405              		.loc 1 95 0
 406 02dc FB79     		ldrb	r3, [r7, #7]	@ zero_extendqisi2
 407 02de 1846     		mov	r0, r3
 408 02e0 4FF00101 		mov	r1, #1
 409 02e4 FFF7FEFF 		bl	GPS_GetChar
 410 02e8 0346     		mov	r3, r0
 411 02ea 1A46     		mov	r2, r3
 412 02ec 40F20003 		movw	r3, #:lower16:GPS_DataBuffer
 413 02f0 C0F20003 		movt	r3, #:upper16:GPS_DataBuffer
 414 02f4 F968     		ldr	r1, [r7, #12]
 415 02f6 5B18     		adds	r3, r3, r1
 416 02f8 1A70     		strb	r2, [r3, #0]
  96:../src/gps.c  **** 	numbytes++;
 417              		.loc 1 96 0
 418 02fa FB68     		ldr	r3, [r7, #12]
 419 02fc 03F10103 		add	r3, r3, #1
 420 0300 FB60     		str	r3, [r7, #12]
  97:../src/gps.c  **** 	GPS_DataBuffer[numbytes] = GPS_GetChar(checksum, RESET);
 421              		.loc 1 97 0
 422 0302 FB79     		ldrb	r3, [r7, #7]	@ zero_extendqisi2
 423 0304 1846     		mov	r0, r3
 424 0306 4FF00001 		mov	r1, #0
 425 030a FFF7FEFF 		bl	GPS_GetChar
 426 030e 0346     		mov	r3, r0
 427 0310 1A46     		mov	r2, r3
 428 0312 40F20003 		movw	r3, #:lower16:GPS_DataBuffer
 429 0316 C0F20003 		movt	r3, #:upper16:GPS_DataBuffer
 430 031a F968     		ldr	r1, [r7, #12]
 431 031c 5B18     		adds	r3, r3, r1
 432 031e 1A70     		strb	r2, [r3, #0]
  98:../src/gps.c  **** 	numbytes++;
 433              		.loc 1 98 0
 434 0320 FB68     		ldr	r3, [r7, #12]
 435 0322 03F10103 		add	r3, r3, #1
 436 0326 FB60     		str	r3, [r7, #12]
  99:../src/gps.c  **** 	GPS_DataBuffer[numbytes] = 0x0d;	// ASCII <CR>
 437              		.loc 1 99 0
 438 0328 40F20003 		movw	r3, #:lower16:GPS_DataBuffer
 439 032c C0F20003 		movt	r3, #:upper16:GPS_DataBuffer
 440 0330 FA68     		ldr	r2, [r7, #12]
 441 0332 9B18     		adds	r3, r3, r2
 442 0334 4FF00D02 		mov	r2, #13
 443 0338 1A70     		strb	r2, [r3, #0]
 100:../src/gps.c  **** 	numbytes++;
 444              		.loc 1 100 0
 445 033a FB68     		ldr	r3, [r7, #12]
 446 033c 03F10103 		add	r3, r3, #1
 447 0340 FB60     		str	r3, [r7, #12]
 101:../src/gps.c  **** 	GPS_DataBuffer[numbytes] = 0x0a;	// ASCII <LF>
 448              		.loc 1 101 0
 449 0342 40F20003 		movw	r3, #:lower16:GPS_DataBuffer
 450 0346 C0F20003 		movt	r3, #:upper16:GPS_DataBuffer
 451 034a FA68     		ldr	r2, [r7, #12]
 452 034c 9B18     		adds	r3, r3, r2
 453 034e 4FF00A02 		mov	r2, #10
 454 0352 1A70     		strb	r2, [r3, #0]
 102:../src/gps.c  **** 	numbytes++;
 455              		.loc 1 102 0
 456 0354 FB68     		ldr	r3, [r7, #12]
 457 0356 03F10103 		add	r3, r3, #1
 458 035a FB60     		str	r3, [r7, #12]
 103:../src/gps.c  **** 
 104:../src/gps.c  **** 	// Send to DMA
 105:../src/gps.c  **** 	transferDMA_USART3(GPS_DataBuffer, numbytes);
 459              		.loc 1 105 0
 460 035c 40F20000 		movw	r0, #:lower16:GPS_DataBuffer
 461 0360 C0F20000 		movt	r0, #:upper16:GPS_DataBuffer
 462 0364 F968     		ldr	r1, [r7, #12]
 463 0366 FFF7FEFF 		bl	transferDMA_USART3
 106:../src/gps.c  **** }
 464              		.loc 1 106 0
 465 036a 07F11007 		add	r7, r7, #16
 466 036e BD46     		mov	sp, r7
 467 0370 80BD     		pop	{r7, pc}
 468              		.cfi_endproc
 469              	.LFE111:
 471 0372 00BF     		.align	2
 472              		.global	GPS_GetChar
 473              		.thumb
 474              		.thumb_func
 476              	GPS_GetChar:
 477              	.LFB112:
 107:../src/gps.c  **** 
 108:../src/gps.c  **** uint8_t GPS_GetChar(uint8_t data, FlagStatus part)
 109:../src/gps.c  **** {
 478              		.loc 1 109 0
 479              		.cfi_startproc
 480              		@ args = 0, pretend = 0, frame = 16
 481              		@ frame_needed = 1, uses_anonymous_args = 0
 482              		@ link register save eliminated.
 483 0374 80B4     		push	{r7}
 484              	.LCFI6:
 485              		.cfi_def_cfa_offset 4
 486              		.cfi_offset 7, -4
 487 0376 85B0     		sub	sp, sp, #20
 488              	.LCFI7:
 489              		.cfi_def_cfa_offset 24
 490 0378 00AF     		add	r7, sp, #0
 491              	.LCFI8:
 492              		.cfi_def_cfa_register 7
 493 037a 0246     		mov	r2, r0
 494 037c 0B46     		mov	r3, r1
 495 037e FA71     		strb	r2, [r7, #7]
 496 0380 BB71     		strb	r3, [r7, #6]
 110:../src/gps.c  **** 	uint8_t character = 0;
 497              		.loc 1 110 0
 498 0382 4FF00003 		mov	r3, #0
 499 0386 FB73     		strb	r3, [r7, #15]
 111:../src/gps.c  **** 	// Part = SET -> get upper 4 bits, RESET -> get lower 4 bits
 112:../src/gps.c  **** 	if(part)
 500              		.loc 1 112 0
 501 0388 BB79     		ldrb	r3, [r7, #6]	@ zero_extendqisi2
 502 038a 002B     		cmp	r3, #0
 503 038c 04D0     		beq	.L8
 113:../src/gps.c  **** 	{
 114:../src/gps.c  **** 		// Upper 4 bits
 115:../src/gps.c  **** 		character = (data >> 4) & 0x0F;
 504              		.loc 1 115 0
 505 038e FB79     		ldrb	r3, [r7, #7]	@ zero_extendqisi2
 506 0390 4FEA1313 		lsr	r3, r3, #4
 507 0394 FB73     		strb	r3, [r7, #15]
 508 0396 03E0     		b	.L9
 509              	.L8:
 116:../src/gps.c  **** 	}
 117:../src/gps.c  **** 	else
 118:../src/gps.c  **** 	{
 119:../src/gps.c  **** 		character = data & 0x0F;
 510              		.loc 1 119 0
 511 0398 FB79     		ldrb	r3, [r7, #7]
 512 039a 03F00F03 		and	r3, r3, #15
 513 039e FB73     		strb	r3, [r7, #15]
 514              	.L9:
 120:../src/gps.c  **** 	}
 121:../src/gps.c  **** 	if(character < 10)
 515              		.loc 1 121 0
 516 03a0 FB7B     		ldrb	r3, [r7, #15]	@ zero_extendqisi2
 517 03a2 092B     		cmp	r3, #9
 518 03a4 04D8     		bhi	.L10
 122:../src/gps.c  **** 	{
 123:../src/gps.c  **** 		// Result = x + 48
 124:../src/gps.c  **** 		character = character + 48;
 519              		.loc 1 124 0
 520 03a6 FB7B     		ldrb	r3, [r7, #15]
 521 03a8 03F13003 		add	r3, r3, #48
 522 03ac FB73     		strb	r3, [r7, #15]
 523 03ae 03E0     		b	.L11
 524              	.L10:
 125:../src/gps.c  **** 	}
 126:../src/gps.c  **** 	else
 127:../src/gps.c  **** 	{
 128:../src/gps.c  **** 		// Result = x -10 + 65 = x + 55
 129:../src/gps.c  **** 		character = character + 55;
 525              		.loc 1 129 0
 526 03b0 FB7B     		ldrb	r3, [r7, #15]
 527 03b2 03F13703 		add	r3, r3, #55
 528 03b6 FB73     		strb	r3, [r7, #15]
 529              	.L11:
 130:../src/gps.c  **** 	}
 131:../src/gps.c  **** 	return character;
 530              		.loc 1 131 0
 531 03b8 FB7B     		ldrb	r3, [r7, #15]	@ zero_extendqisi2
 132:../src/gps.c  **** }
 532              		.loc 1 132 0
 533 03ba 1846     		mov	r0, r3
 534 03bc 07F11407 		add	r7, r7, #20
 535 03c0 BD46     		mov	sp, r7
 536 03c2 80BC     		pop	{r7}
 537 03c4 7047     		bx	lr
 538              		.cfi_endproc
 539              	.LFE112:
 541 03c6 00BF     		.align	2
 542              		.global	GPS_CalculateChecksum
 543              		.thumb
 544              		.thumb_func
 546              	GPS_CalculateChecksum:
 547              	.LFB113:
 133:../src/gps.c  **** 
 134:../src/gps.c  **** uint8_t GPS_CalculateChecksum(uint8_t *data, int startByte, int dataCount)
 135:../src/gps.c  **** {
 548              		.loc 1 135 0
 549              		.cfi_startproc
 550              		@ args = 0, pretend = 0, frame = 24
 551              		@ frame_needed = 1, uses_anonymous_args = 0
 552              		@ link register save eliminated.
 553 03c8 80B4     		push	{r7}
 554              	.LCFI9:
 555              		.cfi_def_cfa_offset 4
 556              		.cfi_offset 7, -4
 557 03ca 87B0     		sub	sp, sp, #28
 558              	.LCFI10:
 559              		.cfi_def_cfa_offset 32
 560 03cc 00AF     		add	r7, sp, #0
 561              	.LCFI11:
 562              		.cfi_def_cfa_register 7
 563 03ce F860     		str	r0, [r7, #12]
 564 03d0 B960     		str	r1, [r7, #8]
 565 03d2 7A60     		str	r2, [r7, #4]
 136:../src/gps.c  **** 	int i = 0;
 566              		.loc 1 136 0
 567 03d4 4FF00003 		mov	r3, #0
 568 03d8 7B61     		str	r3, [r7, #20]
 137:../src/gps.c  **** 	uint8_t checksum = GPS_DataBuffer[startByte];
 569              		.loc 1 137 0
 570 03da 40F20003 		movw	r3, #:lower16:GPS_DataBuffer
 571 03de C0F20003 		movt	r3, #:upper16:GPS_DataBuffer
 572 03e2 BA68     		ldr	r2, [r7, #8]
 573 03e4 9B18     		adds	r3, r3, r2
 574 03e6 1B78     		ldrb	r3, [r3, #0]
 575 03e8 FB74     		strb	r3, [r7, #19]
 138:../src/gps.c  **** 	for(i = startByte + 1; i < dataCount; i++)
 576              		.loc 1 138 0
 577 03ea BB68     		ldr	r3, [r7, #8]
 578 03ec 03F10103 		add	r3, r3, #1
 579 03f0 7B61     		str	r3, [r7, #20]
 580 03f2 0DE0     		b	.L13
 581              	.L14:
 139:../src/gps.c  **** 	{
 140:../src/gps.c  **** 		checksum = checksum ^ GPS_DataBuffer[i];
 582              		.loc 1 140 0 discriminator 2
 583 03f4 40F20003 		movw	r3, #:lower16:GPS_DataBuffer
 584 03f8 C0F20003 		movt	r3, #:upper16:GPS_DataBuffer
 585 03fc 7A69     		ldr	r2, [r7, #20]
 586 03fe 9B18     		adds	r3, r3, r2
 587 0400 1A78     		ldrb	r2, [r3, #0]	@ zero_extendqisi2
 588 0402 FB7C     		ldrb	r3, [r7, #19]
 589 0404 5340     		eors	r3, r3, r2
 590 0406 FB74     		strb	r3, [r7, #19]
 138:../src/gps.c  **** 	for(i = startByte + 1; i < dataCount; i++)
 591              		.loc 1 138 0 discriminator 2
 592 0408 7B69     		ldr	r3, [r7, #20]
 593 040a 03F10103 		add	r3, r3, #1
 594 040e 7B61     		str	r3, [r7, #20]
 595              	.L13:
 138:../src/gps.c  **** 	for(i = startByte + 1; i < dataCount; i++)
 596              		.loc 1 138 0 is_stmt 0 discriminator 1
 597 0410 7A69     		ldr	r2, [r7, #20]
 598 0412 7B68     		ldr	r3, [r7, #4]
 599 0414 9A42     		cmp	r2, r3
 600 0416 EDDB     		blt	.L14
 141:../src/gps.c  **** 	}
 142:../src/gps.c  **** 	return checksum;
 601              		.loc 1 142 0 is_stmt 1
 602 0418 FB7C     		ldrb	r3, [r7, #19]	@ zero_extendqisi2
 143:../src/gps.c  **** }
 603              		.loc 1 143 0
 604 041a 1846     		mov	r0, r3
 605 041c 07F11C07 		add	r7, r7, #28
 606 0420 BD46     		mov	sp, r7
 607 0422 80BC     		pop	{r7}
 608 0424 7047     		bx	lr
 609              		.cfi_endproc
 610              	.LFE113:
 612 0426 00BF     		.align	2
 613              		.global	GPS_CharToByte
 614              		.thumb
 615              		.thumb_func
 617              	GPS_CharToByte:
 618              	.LFB114:
 144:../src/gps.c  **** 
 145:../src/gps.c  **** uint8_t GPS_CharToByte(uint8_t data)
 146:../src/gps.c  **** {
 619              		.loc 1 146 0
 620              		.cfi_startproc
 621              		@ args = 0, pretend = 0, frame = 8
 622              		@ frame_needed = 1, uses_anonymous_args = 0
 623              		@ link register save eliminated.
 624 0428 80B4     		push	{r7}
 625              	.LCFI12:
 626              		.cfi_def_cfa_offset 4
 627              		.cfi_offset 7, -4
 628 042a 83B0     		sub	sp, sp, #12
 629              	.LCFI13:
 630              		.cfi_def_cfa_offset 16
 631 042c 00AF     		add	r7, sp, #0
 632              	.LCFI14:
 633              		.cfi_def_cfa_register 7
 634 042e 0346     		mov	r3, r0
 635 0430 FB71     		strb	r3, [r7, #7]
 147:../src/gps.c  **** 	// Data is a number 0 - 9 in ASCII
 148:../src/gps.c  **** 	// To get value, remove 48 from data
 149:../src/gps.c  **** 	return data - 48;
 636              		.loc 1 149 0
 637 0432 FB79     		ldrb	r3, [r7, #7]
 638 0434 A3F13003 		sub	r3, r3, #48
 639 0438 DBB2     		uxtb	r3, r3
 150:../src/gps.c  **** }
 640              		.loc 1 150 0
 641 043a 1846     		mov	r0, r3
 642 043c 07F10C07 		add	r7, r7, #12
 643 0440 BD46     		mov	sp, r7
 644 0442 80BC     		pop	{r7}
 645 0444 7047     		bx	lr
 646              		.cfi_endproc
 647              	.LFE114:
 649 0446 00BF     		.align	2
 650              		.global	GPS_ReceiveProcess
 651              		.thumb
 652              		.thumb_func
 654              	GPS_ReceiveProcess:
 655              	.LFB115:
 151:../src/gps.c  **** 
 152:../src/gps.c  **** void GPS_ReceiveProcess(uint8_t data)
 153:../src/gps.c  **** {
 656              		.loc 1 153 0
 657              		.cfi_startproc
 658              		@ args = 0, pretend = 0, frame = 16
 659              		@ frame_needed = 1, uses_anonymous_args = 0
 660 0448 90B5     		push	{r4, r7, lr}
 661              	.LCFI15:
 662              		.cfi_def_cfa_offset 12
 663              		.cfi_offset 14, -4
 664              		.cfi_offset 7, -8
 665              		.cfi_offset 4, -12
 666 044a 85B0     		sub	sp, sp, #20
 667              	.LCFI16:
 668              		.cfi_def_cfa_offset 32
 669 044c 00AF     		add	r7, sp, #0
 670              	.LCFI17:
 671              		.cfi_def_cfa_register 7
 672 044e 0346     		mov	r3, r0
 673 0450 FB71     		strb	r3, [r7, #7]
 154:../src/gps.c  **** 	uint16_t temp = 0;
 674              		.loc 1 154 0
 675 0452 4FF00003 		mov	r3, #0
 676 0456 FB81     		strh	r3, [r7, #14]	@ movhi
 155:../src/gps.c  **** 	// Check that we are not sending data. If we are, do not mess with the buffer
 156:../src/gps.c  **** 	if(!GPS_SENDING)
 677              		.loc 1 156 0
 678 0458 40F20003 		movw	r3, #:lower16:flag0
 679 045c C0F20003 		movt	r3, #:upper16:flag0
 680 0460 1B78     		ldrb	r3, [r3, #0]	@ zero_extendqisi2
 681 0462 03F02003 		and	r3, r3, #32
 682 0466 DBB2     		uxtb	r3, r3
 683 0468 002B     		cmp	r3, #0
 684 046a 41F0AC81 		bne	.L17
 157:../src/gps.c  **** 	{
 158:../src/gps.c  **** 		switch(GPS_ProcesState)
 685              		.loc 1 158 0
 686 046e 40F20003 		movw	r3, #:lower16:GPS_ProcesState
 687 0472 C0F20003 		movt	r3, #:upper16:GPS_ProcesState
 688 0476 1B78     		ldrb	r3, [r3, #0]	@ zero_extendqisi2
 689 0478 032B     		cmp	r3, #3
 690 047a 01F29781 		bhi	.L18
 691 047e 01A2     		adr	r2, .L23
 692 0480 52F823F0 		ldr	pc, [r2, r3, lsl #2]
 693              		.align	2
 694              	.L23:
 695 0484 95040000 		.word	.L19+1
 696 0488 07050000 		.word	.L20+1
 697 048c 9D0E0000 		.word	.L21+1
 698 0490 67170000 		.word	.L22+1
 699              	.L19:
 159:../src/gps.c  **** 		{
 160:../src/gps.c  **** 			case GPS_WAITINGSTART:
 161:../src/gps.c  **** 			{
 162:../src/gps.c  **** 				if(data == '$')
 700              		.loc 1 162 0
 701 0494 FB79     		ldrb	r3, [r7, #7]	@ zero_extendqisi2
 702 0496 242B     		cmp	r3, #36
 703 0498 41F09081 		bne	.L91
 163:../src/gps.c  **** 				{
 164:../src/gps.c  **** 					GPS_ProcesState = GPS_RECEIVE_NUMBER;
 704              		.loc 1 164 0
 705 049c 40F20003 		movw	r3, #:lower16:GPS_ProcesState
 706 04a0 C0F20003 		movt	r3, #:upper16:GPS_ProcesState
 707 04a4 4FF00102 		mov	r2, #1
 708 04a8 1A70     		strb	r2, [r3, #0]
 165:../src/gps.c  **** 					GPS_NextData = GPS_NEXTDATA_DATACODE;
 709              		.loc 1 165 0
 710 04aa 40F20003 		movw	r3, #:lower16:GPS_NextData
 711 04ae C0F20003 		movt	r3, #:upper16:GPS_NextData
 712 04b2 4FF01302 		mov	r2, #19
 713 04b6 1A70     		strb	r2, [r3, #0]
 166:../src/gps.c  **** 					// Go to next data
 167:../src/gps.c  **** 					GPS_Digits[0] = 0;
 714              		.loc 1 167 0
 715 04b8 40F20003 		movw	r3, #:lower16:GPS_Digits
 716 04bc C0F20003 		movt	r3, #:upper16:GPS_Digits
 717 04c0 4FF00002 		mov	r2, #0
 718 04c4 1A70     		strb	r2, [r3, #0]
 168:../src/gps.c  **** 					GPS_Digits[1] = 0;
 719              		.loc 1 168 0
 720 04c6 40F20003 		movw	r3, #:lower16:GPS_Digits
 721 04ca C0F20003 		movt	r3, #:upper16:GPS_Digits
 722 04ce 4FF00002 		mov	r2, #0
 723 04d2 5A70     		strb	r2, [r3, #1]
 169:../src/gps.c  **** 					GPS_Digits_Count = 0;
 724              		.loc 1 169 0
 725 04d4 40F20003 		movw	r3, #:lower16:GPS_Digits_Count
 726 04d8 C0F20003 		movt	r3, #:upper16:GPS_Digits_Count
 727 04dc 4FF00002 		mov	r2, #0
 728 04e0 1A70     		strb	r2, [r3, #0]
 170:../src/gps.c  **** 					GPSFLAG_CR_RECEIVED = 0;
 729              		.loc 1 170 0
 730 04e2 40F20003 		movw	r3, #:lower16:GPSFlag
 731 04e6 C0F20003 		movt	r3, #:upper16:GPSFlag
 732 04ea 1A78     		ldrb	r2, [r3, #0]
 733 04ec 6FF34512 		bfc	r2, #5, #1
 734 04f0 1A70     		strb	r2, [r3, #0]
 171:../src/gps.c  **** 					GPSFLAG_CHECKSUM_RESET = 1;
 735              		.loc 1 171 0
 736 04f2 40F20003 		movw	r3, #:lower16:GPSFlag
 737 04f6 C0F20003 		movt	r3, #:upper16:GPSFlag
 738 04fa 1A78     		ldrb	r2, [r3, #0]
 739 04fc 42F04002 		orr	r2, r2, #64
 740 0500 1A70     		strb	r2, [r3, #0]
 172:../src/gps.c  **** 				}
 173:../src/gps.c  **** 				break;
 741              		.loc 1 173 0
 742 0502 01F05BB9 		b	.L91
 743              	.L20:
 174:../src/gps.c  **** 			}
 175:../src/gps.c  **** 			case GPS_RECEIVE_NUMBER:
 176:../src/gps.c  **** 			{
 177:../src/gps.c  **** 				if(data == ',')
 744              		.loc 1 177 0
 745 0506 FB79     		ldrb	r3, [r7, #7]	@ zero_extendqisi2
 746 0508 2C2B     		cmp	r3, #44
 747 050a 40F0D683 		bne	.L25
 178:../src/gps.c  **** 				{
 179:../src/gps.c  **** 					// Store data and go to next data
 180:../src/gps.c  **** 					switch(GPS_NextData)
 748              		.loc 1 180 0
 749 050e 40F20003 		movw	r3, #:lower16:GPS_NextData
 750 0512 C0F20003 		movt	r3, #:upper16:GPS_NextData
 751 0516 1B78     		ldrb	r3, [r3, #0]	@ zero_extendqisi2
 752 0518 132B     		cmp	r3, #19
 753 051a 00F2B083 		bhi	.L26
 754 051e 01A2     		adr	r2, .L43
 755 0520 52F823F0 		ldr	pc, [r2, r3, lsl #2]
 756              		.align	2
 757              	.L43:
 758 0524 F9090000 		.word	.L27+1
 759 0528 2B090000 		.word	.L28+1
 760 052c 870A0000 		.word	.L29+1
 761 0530 CF0A0000 		.word	.L30+1
 762 0534 C1060000 		.word	.L31+1
 763 0538 31070000 		.word	.L32+1
 764 053c D9070000 		.word	.L33+1
 765 0540 4B080000 		.word	.L34+1
 766 0544 A70B0000 		.word	.L35+1
 767 0548 EF0B0000 		.word	.L36+1
 768 054c FF080000 		.word	.L37+1
 769 0550 370C0000 		.word	.L38+1
 770 0554 7F0C0000 		.word	.L26+1
 771 0558 57060000 		.word	.L39+1
 772 055c 170B0000 		.word	.L40+1
 773 0560 5F0B0000 		.word	.L41+1
 774 0564 7F0C0000 		.word	.L26+1
 775 0568 7F0C0000 		.word	.L26+1
 776 056c 7F0C0000 		.word	.L26+1
 777 0570 75050000 		.word	.L42+1
 778              	.L42:
 181:../src/gps.c  **** 					{
 182:../src/gps.c  **** 						case GPS_NEXTDATA_DATACODE:
 183:../src/gps.c  **** 						{
 184:../src/gps.c  **** 							// Go to next data
 185:../src/gps.c  **** 							GPS_NextData = GPS_NEXTDATA_TIME;
 779              		.loc 1 185 0
 780 0574 40F20003 		movw	r3, #:lower16:GPS_NextData
 781 0578 C0F20003 		movt	r3, #:upper16:GPS_NextData
 782 057c 4FF00002 		mov	r2, #0
 783 0580 1A70     		strb	r2, [r3, #0]
 186:../src/gps.c  **** 							GPS_Digits_Count = 0;
 784              		.loc 1 186 0
 785 0582 40F20003 		movw	r3, #:lower16:GPS_Digits_Count
 786 0586 C0F20003 		movt	r3, #:upper16:GPS_Digits_Count
 787 058a 4FF00002 		mov	r2, #0
 788 058e 1A70     		strb	r2, [r3, #0]
 187:../src/gps.c  **** 							if((GPS_Digits[2] == 'G') && (GPS_Digits[3] == 'G') && (GPS_Digits[4] == 'A'))
 789              		.loc 1 187 0
 790 0590 40F20003 		movw	r3, #:lower16:GPS_Digits
 791 0594 C0F20003 		movt	r3, #:upper16:GPS_Digits
 792 0598 9B78     		ldrb	r3, [r3, #2]	@ zero_extendqisi2
 793 059a 472B     		cmp	r3, #71
 794 059c 1ED1     		bne	.L44
 795              		.loc 1 187 0 is_stmt 0 discriminator 1
 796 059e 40F20003 		movw	r3, #:lower16:GPS_Digits
 797 05a2 C0F20003 		movt	r3, #:upper16:GPS_Digits
 798 05a6 DB78     		ldrb	r3, [r3, #3]	@ zero_extendqisi2
 799 05a8 472B     		cmp	r3, #71
 800 05aa 17D1     		bne	.L44
 801 05ac 40F20003 		movw	r3, #:lower16:GPS_Digits
 802 05b0 C0F20003 		movt	r3, #:upper16:GPS_Digits
 803 05b4 1B79     		ldrb	r3, [r3, #4]	@ zero_extendqisi2
 804 05b6 412B     		cmp	r3, #65
 805 05b8 10D1     		bne	.L44
 188:../src/gps.c  **** 							{
 189:../src/gps.c  **** 								GPSFLAG_GGA = 1;
 806              		.loc 1 189 0 is_stmt 1
 807 05ba 40F20003 		movw	r3, #:lower16:GPSFlag
 808 05be C0F20003 		movt	r3, #:upper16:GPSFlag
 809 05c2 1A78     		ldrb	r2, [r3, #0]
 810 05c4 42F00802 		orr	r2, r2, #8
 811 05c8 1A70     		strb	r2, [r3, #0]
 190:../src/gps.c  **** 								GPSFLAG_RMC = 0;
 812              		.loc 1 190 0
 813 05ca 40F20003 		movw	r3, #:lower16:GPSFlag
 814 05ce C0F20003 		movt	r3, #:upper16:GPSFlag
 815 05d2 1A78     		ldrb	r2, [r3, #0]
 816 05d4 6FF30412 		bfc	r2, #4, #1
 817 05d8 1A70     		strb	r2, [r3, #0]
 818 05da 3BE0     		b	.L45
 819              	.L44:
 191:../src/gps.c  **** 							}
 192:../src/gps.c  **** 							else if((GPS_Digits[2] == 'R') && (GPS_Digits[3] == 'M') && (GPS_Digits[4] == 'C'))
 820              		.loc 1 192 0
 821 05dc 40F20003 		movw	r3, #:lower16:GPS_Digits
 822 05e0 C0F20003 		movt	r3, #:upper16:GPS_Digits
 823 05e4 9B78     		ldrb	r3, [r3, #2]	@ zero_extendqisi2
 824 05e6 522B     		cmp	r3, #82
 825 05e8 1ED1     		bne	.L46
 826              		.loc 1 192 0 is_stmt 0 discriminator 1
 827 05ea 40F20003 		movw	r3, #:lower16:GPS_Digits
 828 05ee C0F20003 		movt	r3, #:upper16:GPS_Digits
 829 05f2 DB78     		ldrb	r3, [r3, #3]	@ zero_extendqisi2
 830 05f4 4D2B     		cmp	r3, #77
 831 05f6 17D1     		bne	.L46
 832 05f8 40F20003 		movw	r3, #:lower16:GPS_Digits
 833 05fc C0F20003 		movt	r3, #:upper16:GPS_Digits
 834 0600 1B79     		ldrb	r3, [r3, #4]	@ zero_extendqisi2
 835 0602 432B     		cmp	r3, #67
 836 0604 10D1     		bne	.L46
 193:../src/gps.c  **** 							{
 194:../src/gps.c  **** 								GPSFLAG_GGA = 0;
 837              		.loc 1 194 0 is_stmt 1
 838 0606 40F20003 		movw	r3, #:lower16:GPSFlag
 839 060a C0F20003 		movt	r3, #:upper16:GPSFlag
 840 060e 1A78     		ldrb	r2, [r3, #0]
 841 0610 6FF3C302 		bfc	r2, #3, #1
 842 0614 1A70     		strb	r2, [r3, #0]
 195:../src/gps.c  **** 								GPSFLAG_RMC = 1;
 843              		.loc 1 195 0
 844 0616 40F20003 		movw	r3, #:lower16:GPSFlag
 845 061a C0F20003 		movt	r3, #:upper16:GPSFlag
 846 061e 1A78     		ldrb	r2, [r3, #0]
 847 0620 42F01002 		orr	r2, r2, #16
 848 0624 1A70     		strb	r2, [r3, #0]
 849 0626 15E0     		b	.L45
 850              	.L46:
 196:../src/gps.c  **** 							}
 197:../src/gps.c  **** 							else
 198:../src/gps.c  **** 							{
 199:../src/gps.c  **** 								// Else sentence not supported
 200:../src/gps.c  **** 								GPS_NextData = GPS_NEXTDATA_VOID;
 851              		.loc 1 200 0
 852 0628 40F20003 		movw	r3, #:lower16:GPS_NextData
 853 062c C0F20003 		movt	r3, #:upper16:GPS_NextData
 854 0630 4FF01502 		mov	r2, #21
 855 0634 1A70     		strb	r2, [r3, #0]
 201:../src/gps.c  **** 								GPS_ProcesState = GPS_WAITINGSTART;
 856              		.loc 1 201 0
 857 0636 40F20003 		movw	r3, #:lower16:GPS_ProcesState
 858 063a C0F20003 		movt	r3, #:upper16:GPS_ProcesState
 859 063e 4FF00002 		mov	r2, #0
 860 0642 1A70     		strb	r2, [r3, #0]
 202:../src/gps.c  **** 								GPS_Digits_Count = 0;
 861              		.loc 1 202 0
 862 0644 40F20003 		movw	r3, #:lower16:GPS_Digits_Count
 863 0648 C0F20003 		movt	r3, #:upper16:GPS_Digits_Count
 864 064c 4FF00002 		mov	r2, #0
 865 0650 1A70     		strb	r2, [r3, #0]
 203:../src/gps.c  **** 							}
 204:../src/gps.c  **** 							break;
 866              		.loc 1 204 0
 867 0652 14E3     		b	.L26
 868              	.L45:
 869 0654 13E3     		b	.L26
 870              	.L39:
 205:../src/gps.c  **** 						}
 206:../src/gps.c  **** 						case GPS_NEXTDATA_STATUS:
 207:../src/gps.c  **** 						{
 208:../src/gps.c  **** 							// A=valid, V=invalid
 209:../src/gps.c  **** 							if(GPS_Digits[0] == 'V')
 871              		.loc 1 209 0
 872 0656 40F20003 		movw	r3, #:lower16:GPS_Digits
 873 065a C0F20003 		movt	r3, #:upper16:GPS_Digits
 874 065e 1B78     		ldrb	r3, [r3, #0]	@ zero_extendqisi2
 875 0660 562B     		cmp	r3, #86
 876 0662 0FD1     		bne	.L47
 210:../src/gps.c  **** 							{
 211:../src/gps.c  **** 								// GPS_VALID bit 15: 0=invalid, 1=valid
 212:../src/gps.c  **** 								GPS_VALID_T = GPS_VALID_T & ~0x8000;
 877              		.loc 1 212 0
 878 0664 40F20003 		movw	r3, #:lower16:GPS_RECDATA
 879 0668 C0F20003 		movt	r3, #:upper16:GPS_RECDATA
 880 066c DB8C     		ldrh	r3, [r3, #38]
 881 066e 4FEA4343 		lsl	r3, r3, #17
 882 0672 4FEA5343 		lsr	r3, r3, #17
 883 0676 9AB2     		uxth	r2, r3
 884 0678 40F20003 		movw	r3, #:lower16:GPS_RECDATA
 885 067c C0F20003 		movt	r3, #:upper16:GPS_RECDATA
 886 0680 DA84     		strh	r2, [r3, #38]	@ movhi
 887 0682 0EE0     		b	.L48
 888              	.L47:
 213:../src/gps.c  **** 							}
 214:../src/gps.c  **** 							else
 215:../src/gps.c  **** 							{
 216:../src/gps.c  **** 								GPS_VALID_T = GPS_VALID_T | 0x8000;
 889              		.loc 1 216 0
 890 0684 40F20003 		movw	r3, #:lower16:GPS_RECDATA
 891 0688 C0F20003 		movt	r3, #:upper16:GPS_RECDATA
 892 068c DB8C     		ldrh	r3, [r3, #38]
 893 068e 6FEA4343 		mvn	r3, r3, lsl #17
 894 0692 6FEA5343 		mvn	r3, r3, lsr #17
 895 0696 9AB2     		uxth	r2, r3
 896 0698 40F20003 		movw	r3, #:lower16:GPS_RECDATA
 897 069c C0F20003 		movt	r3, #:upper16:GPS_RECDATA
 898 06a0 DA84     		strh	r2, [r3, #38]	@ movhi
 899              	.L48:
 217:../src/gps.c  **** 							}
 218:../src/gps.c  **** 							// Go to next data
 219:../src/gps.c  **** 							GPS_NextData = GPS_NEXTDATA_LATITUDE;
 900              		.loc 1 219 0
 901 06a2 40F20003 		movw	r3, #:lower16:GPS_NextData
 902 06a6 C0F20003 		movt	r3, #:upper16:GPS_NextData
 903 06aa 4FF00202 		mov	r2, #2
 904 06ae 1A70     		strb	r2, [r3, #0]
 220:../src/gps.c  **** 							GPS_Digits_Count = 0;
 905              		.loc 1 220 0
 906 06b0 40F20003 		movw	r3, #:lower16:GPS_Digits_Count
 907 06b4 C0F20003 		movt	r3, #:upper16:GPS_Digits_Count
 908 06b8 4FF00002 		mov	r2, #0
 909 06bc 1A70     		strb	r2, [r3, #0]
 221:../src/gps.c  **** 							break;
 910              		.loc 1 221 0
 911 06be DEE2     		b	.L26
 912              	.L31:
 222:../src/gps.c  **** 						}
 223:../src/gps.c  **** 						// Case data received N/S
 224:../src/gps.c  **** 						case GPS_NEXTDATA_NS:
 225:../src/gps.c  **** 						{
 226:../src/gps.c  **** 							// GPS_NS_EW, bit0: N=0,S=1; bit1:E=0,W=1
 227:../src/gps.c  **** 							if(GPS_Digits[0] == 'N')
 913              		.loc 1 227 0
 914 06c0 40F20003 		movw	r3, #:lower16:GPS_Digits
 915 06c4 C0F20003 		movt	r3, #:upper16:GPS_Digits
 916 06c8 1B78     		ldrb	r3, [r3, #0]	@ zero_extendqisi2
 917 06ca 4E2B     		cmp	r3, #78
 918 06cc 0DD1     		bne	.L49
 228:../src/gps.c  **** 							{
 229:../src/gps.c  **** 								GPS_NS_EW_T = GPS_NS_EW_T & ~0x0001;
 919              		.loc 1 229 0
 920 06ce 40F20003 		movw	r3, #:lower16:GPS_RECDATA
 921 06d2 C0F20003 		movt	r3, #:upper16:GPS_RECDATA
 922 06d6 9B8C     		ldrh	r3, [r3, #36]
 923 06d8 23F00103 		bic	r3, r3, #1
 924 06dc 9AB2     		uxth	r2, r3
 925 06de 40F20003 		movw	r3, #:lower16:GPS_RECDATA
 926 06e2 C0F20003 		movt	r3, #:upper16:GPS_RECDATA
 927 06e6 9A84     		strh	r2, [r3, #36]	@ movhi
 928 06e8 0CE0     		b	.L50
 929              	.L49:
 230:../src/gps.c  **** 							}
 231:../src/gps.c  **** 							else
 232:../src/gps.c  **** 							{
 233:../src/gps.c  **** 								GPS_NS_EW_T = GPS_NS_EW_T | 0x0001;
 930              		.loc 1 233 0
 931 06ea 40F20003 		movw	r3, #:lower16:GPS_RECDATA
 932 06ee C0F20003 		movt	r3, #:upper16:GPS_RECDATA
 933 06f2 9B8C     		ldrh	r3, [r3, #36]
 934 06f4 43F00103 		orr	r3, r3, #1
 935 06f8 9AB2     		uxth	r2, r3
 936 06fa 40F20003 		movw	r3, #:lower16:GPS_RECDATA
 937 06fe C0F20003 		movt	r3, #:upper16:GPS_RECDATA
 938 0702 9A84     		strh	r2, [r3, #36]	@ movhi
 939              	.L50:
 234:../src/gps.c  **** 							}
 235:../src/gps.c  **** 							// Go to next data
 236:../src/gps.c  **** 							GPS_NextData = GPS_NEXTDATA_LONGITUDE;
 940              		.loc 1 236 0
 941 0704 40F20003 		movw	r3, #:lower16:GPS_NextData
 942 0708 C0F20003 		movt	r3, #:upper16:GPS_NextData
 943 070c 4FF00302 		mov	r2, #3
 944 0710 1A70     		strb	r2, [r3, #0]
 237:../src/gps.c  **** 							GPS_ProcesState = GPS_RECEIVE_NUMBER;
 945              		.loc 1 237 0
 946 0712 40F20003 		movw	r3, #:lower16:GPS_ProcesState
 947 0716 C0F20003 		movt	r3, #:upper16:GPS_ProcesState
 948 071a 4FF00102 		mov	r2, #1
 949 071e 1A70     		strb	r2, [r3, #0]
 238:../src/gps.c  **** 							GPS_Digits_Count = 0;
 950              		.loc 1 238 0
 951 0720 40F20003 		movw	r3, #:lower16:GPS_Digits_Count
 952 0724 C0F20003 		movt	r3, #:upper16:GPS_Digits_Count
 953 0728 4FF00002 		mov	r2, #0
 954 072c 1A70     		strb	r2, [r3, #0]
 239:../src/gps.c  **** 							break;
 955              		.loc 1 239 0
 956 072e A6E2     		b	.L26
 957              	.L32:
 240:../src/gps.c  **** 						}
 241:../src/gps.c  **** 						case GPS_NEXTDATA_EW:
 242:../src/gps.c  **** 						{
 243:../src/gps.c  **** 							// GPS_NS_EW, bit0: N=0,S=1; bit1:E=0,W=1
 244:../src/gps.c  **** 							if(GPS_Digits[0] == 'E')
 958              		.loc 1 244 0
 959 0730 40F20003 		movw	r3, #:lower16:GPS_Digits
 960 0734 C0F20003 		movt	r3, #:upper16:GPS_Digits
 961 0738 1B78     		ldrb	r3, [r3, #0]	@ zero_extendqisi2
 962 073a 452B     		cmp	r3, #69
 963 073c 0DD1     		bne	.L51
 245:../src/gps.c  **** 							{
 246:../src/gps.c  **** 								GPS_NS_EW_T = GPS_NS_EW_T & ~0x0002;
 964              		.loc 1 246 0
 965 073e 40F20003 		movw	r3, #:lower16:GPS_RECDATA
 966 0742 C0F20003 		movt	r3, #:upper16:GPS_RECDATA
 967 0746 9B8C     		ldrh	r3, [r3, #36]
 968 0748 23F00203 		bic	r3, r3, #2
 969 074c 9AB2     		uxth	r2, r3
 970 074e 40F20003 		movw	r3, #:lower16:GPS_RECDATA
 971 0752 C0F20003 		movt	r3, #:upper16:GPS_RECDATA
 972 0756 9A84     		strh	r2, [r3, #36]	@ movhi
 973 0758 0CE0     		b	.L52
 974              	.L51:
 247:../src/gps.c  **** 							}
 248:../src/gps.c  **** 							else
 249:../src/gps.c  **** 							{
 250:../src/gps.c  **** 								GPS_NS_EW_T = GPS_NS_EW_T | 0x0002;
 975              		.loc 1 250 0
 976 075a 40F20003 		movw	r3, #:lower16:GPS_RECDATA
 977 075e C0F20003 		movt	r3, #:upper16:GPS_RECDATA
 978 0762 9B8C     		ldrh	r3, [r3, #36]
 979 0764 43F00203 		orr	r3, r3, #2
 980 0768 9AB2     		uxth	r2, r3
 981 076a 40F20003 		movw	r3, #:lower16:GPS_RECDATA
 982 076e C0F20003 		movt	r3, #:upper16:GPS_RECDATA
 983 0772 9A84     		strh	r2, [r3, #36]	@ movhi
 984              	.L52:
 251:../src/gps.c  **** 							}
 252:../src/gps.c  **** 							// Go to next data
 253:../src/gps.c  **** 							if(GPSFLAG_GGA)
 985              		.loc 1 253 0
 986 0774 40F20003 		movw	r3, #:lower16:GPSFlag
 987 0778 C0F20003 		movt	r3, #:upper16:GPSFlag
 988 077c 1B78     		ldrb	r3, [r3, #0]	@ zero_extendqisi2
 989 077e 03F00803 		and	r3, r3, #8
 990 0782 DBB2     		uxtb	r3, r3
 991 0784 002B     		cmp	r3, #0
 992 0786 07D0     		beq	.L53
 254:../src/gps.c  **** 							{
 255:../src/gps.c  **** 								GPS_NextData = GPS_NEXTDATA_FIXVALID;
 993              		.loc 1 255 0
 994 0788 40F20003 		movw	r3, #:lower16:GPS_NextData
 995 078c C0F20003 		movt	r3, #:upper16:GPS_NextData
 996 0790 4FF00602 		mov	r2, #6
 997 0794 1A70     		strb	r2, [r3, #0]
 998 0796 10E0     		b	.L54
 999              	.L53:
 256:../src/gps.c  **** 							}
 257:../src/gps.c  **** 							else if(GPSFLAG_RMC)
 1000              		.loc 1 257 0
 1001 0798 40F20003 		movw	r3, #:lower16:GPSFlag
 1002 079c C0F20003 		movt	r3, #:upper16:GPSFlag
 1003 07a0 1B78     		ldrb	r3, [r3, #0]	@ zero_extendqisi2
 1004 07a2 03F01003 		and	r3, r3, #16
 1005 07a6 DBB2     		uxtb	r3, r3
 1006 07a8 002B     		cmp	r3, #0
 1007 07aa 06D0     		beq	.L54
 258:../src/gps.c  **** 							{
 259:../src/gps.c  **** 								GPS_NextData = GPS_NEXTDATA_SPEED;
 1008              		.loc 1 259 0
 1009 07ac 40F20003 		movw	r3, #:lower16:GPS_NextData
 1010 07b0 C0F20003 		movt	r3, #:upper16:GPS_NextData
 1011 07b4 4FF00E02 		mov	r2, #14
 1012 07b8 1A70     		strb	r2, [r3, #0]
 1013              	.L54:
 260:../src/gps.c  **** 							}
 261:../src/gps.c  **** 							GPS_ProcesState = GPS_RECEIVE_NUMBER;
 1014              		.loc 1 261 0
 1015 07ba 40F20003 		movw	r3, #:lower16:GPS_ProcesState
 1016 07be C0F20003 		movt	r3, #:upper16:GPS_ProcesState
 1017 07c2 4FF00102 		mov	r2, #1
 1018 07c6 1A70     		strb	r2, [r3, #0]
 262:../src/gps.c  **** 							GPS_Digits_Count = 0;
 1019              		.loc 1 262 0
 1020 07c8 40F20003 		movw	r3, #:lower16:GPS_Digits_Count
 1021 07cc C0F20003 		movt	r3, #:upper16:GPS_Digits_Count
 1022 07d0 4FF00002 		mov	r2, #0
 1023 07d4 1A70     		strb	r2, [r3, #0]
 263:../src/gps.c  **** 							break;
 1024              		.loc 1 263 0
 1025 07d6 52E2     		b	.L26
 1026              	.L33:
 264:../src/gps.c  **** 						}
 265:../src/gps.c  **** 						case GPS_NEXTDATA_FIXVALID:
 266:../src/gps.c  **** 						{
 267:../src/gps.c  **** 							// GPS_VALID bits 0 - 4
 268:../src/gps.c  **** 							// Clear lower 4 bits
 269:../src/gps.c  **** 							GPS_VALID_T = GPS_VALID_T & 0xFFF0;
 1027              		.loc 1 269 0
 1028 07d8 40F20003 		movw	r3, #:lower16:GPS_RECDATA
 1029 07dc C0F20003 		movt	r3, #:upper16:GPS_RECDATA
 1030 07e0 DB8C     		ldrh	r3, [r3, #38]
 1031 07e2 23F00F03 		bic	r3, r3, #15
 1032 07e6 9AB2     		uxth	r2, r3
 1033 07e8 40F20003 		movw	r3, #:lower16:GPS_RECDATA
 1034 07ec C0F20003 		movt	r3, #:upper16:GPS_RECDATA
 1035 07f0 DA84     		strh	r2, [r3, #38]	@ movhi
 270:../src/gps.c  **** 							GPS_VALID_T = GPS_VALID_T | ((GPS_Digits[0] - 48) & 0x0F);
 1036              		.loc 1 270 0
 1037 07f2 40F20003 		movw	r3, #:lower16:GPS_RECDATA
 1038 07f6 C0F20003 		movt	r3, #:upper16:GPS_RECDATA
 1039 07fa DB8C     		ldrh	r3, [r3, #38]
 1040 07fc 9AB2     		uxth	r2, r3
 1041 07fe 40F20003 		movw	r3, #:lower16:GPS_Digits
 1042 0802 C0F20003 		movt	r3, #:upper16:GPS_Digits
 1043 0806 1B78     		ldrb	r3, [r3, #0]	@ zero_extendqisi2
 1044 0808 03F00F03 		and	r3, r3, #15
 1045 080c 9BB2     		uxth	r3, r3
 1046 080e 1343     		orrs	r3, r3, r2
 1047 0810 9BB2     		uxth	r3, r3
 1048 0812 9AB2     		uxth	r2, r3
 1049 0814 40F20003 		movw	r3, #:lower16:GPS_RECDATA
 1050 0818 C0F20003 		movt	r3, #:upper16:GPS_RECDATA
 1051 081c DA84     		strh	r2, [r3, #38]	@ movhi
 271:../src/gps.c  **** 							// Go to next data
 272:../src/gps.c  **** 							GPS_ProcesState = GPS_RECEIVE_NUMBER;
 1052              		.loc 1 272 0
 1053 081e 40F20003 		movw	r3, #:lower16:GPS_ProcesState
 1054 0822 C0F20003 		movt	r3, #:upper16:GPS_ProcesState
 1055 0826 4FF00102 		mov	r2, #1
 1056 082a 1A70     		strb	r2, [r3, #0]
 273:../src/gps.c  **** 							GPS_NextData = GPS_NEXTDATA_NUMSAT;
 1057              		.loc 1 273 0
 1058 082c 40F20003 		movw	r3, #:lower16:GPS_NextData
 1059 0830 C0F20003 		movt	r3, #:upper16:GPS_NextData
 1060 0834 4FF00702 		mov	r2, #7
 1061 0838 1A70     		strb	r2, [r3, #0]
 274:../src/gps.c  **** 							GPS_Digits_Count = 0;
 1062              		.loc 1 274 0
 1063 083a 40F20003 		movw	r3, #:lower16:GPS_Digits_Count
 1064 083e C0F20003 		movt	r3, #:upper16:GPS_Digits_Count
 1065 0842 4FF00002 		mov	r2, #0
 1066 0846 1A70     		strb	r2, [r3, #0]
 275:../src/gps.c  **** 							break;
 1067              		.loc 1 275 0
 1068 0848 19E2     		b	.L26
 1069              	.L34:
 276:../src/gps.c  **** 						}
 277:../src/gps.c  **** 						case GPS_NEXTDATA_NUMSAT:
 278:../src/gps.c  **** 						{
 279:../src/gps.c  **** 							temp = 1;
 1070              		.loc 1 279 0
 1071 084a 4FF00103 		mov	r3, #1
 1072 084e FB81     		strh	r3, [r7, #14]	@ movhi
 280:../src/gps.c  **** 							GPS_SATSTATUS_T = 0;
 1073              		.loc 1 280 0
 1074 0850 40F20003 		movw	r3, #:lower16:GPS_RECDATA
 1075 0854 C0F20003 		movt	r3, #:upper16:GPS_RECDATA
 1076 0858 4FF00002 		mov	r2, #0
 1077 085c 9A82     		strh	r2, [r3, #20]	@ movhi
 1078              	.L55:
 281:../src/gps.c  **** 							do
 282:../src/gps.c  **** 							{
 283:../src/gps.c  **** 								GPS_Digits_Count--;
 1079              		.loc 1 283 0 discriminator 1
 1080 085e 40F20003 		movw	r3, #:lower16:GPS_Digits_Count
 1081 0862 C0F20003 		movt	r3, #:upper16:GPS_Digits_Count
 1082 0866 1B78     		ldrb	r3, [r3, #0]	@ zero_extendqisi2
 1083 0868 03F1FF33 		add	r3, r3, #-1
 1084 086c DAB2     		uxtb	r2, r3
 1085 086e 40F20003 		movw	r3, #:lower16:GPS_Digits_Count
 1086 0872 C0F20003 		movt	r3, #:upper16:GPS_Digits_Count
 1087 0876 1A70     		strb	r2, [r3, #0]
 284:../src/gps.c  **** 								GPS_SATSTATUS_T = GPS_SATSTATUS_T + (GPS_Digits[GPS_Digits_Count] - 48) * temp;
 1088              		.loc 1 284 0 discriminator 1
 1089 0878 40F20003 		movw	r3, #:lower16:GPS_RECDATA
 1090 087c C0F20003 		movt	r3, #:upper16:GPS_RECDATA
 1091 0880 9A8A     		ldrh	r2, [r3, #20]
 1092 0882 40F20003 		movw	r3, #:lower16:GPS_Digits_Count
 1093 0886 C0F20003 		movt	r3, #:upper16:GPS_Digits_Count
 1094 088a 1B78     		ldrb	r3, [r3, #0]	@ zero_extendqisi2
 1095 088c 1946     		mov	r1, r3
 1096 088e 40F20003 		movw	r3, #:lower16:GPS_Digits
 1097 0892 C0F20003 		movt	r3, #:upper16:GPS_Digits
 1098 0896 5B5C     		ldrb	r3, [r3, r1]	@ zero_extendqisi2
 1099 0898 A3F13003 		sub	r3, r3, #48
 1100 089c 9BB2     		uxth	r3, r3
 1101 089e F989     		ldrh	r1, [r7, #14]	@ movhi
 1102 08a0 01FB03F3 		mul	r3, r1, r3
 1103 08a4 9BB2     		uxth	r3, r3
 1104 08a6 D318     		adds	r3, r2, r3
 1105 08a8 9AB2     		uxth	r2, r3
 1106 08aa 40F20003 		movw	r3, #:lower16:GPS_RECDATA
 1107 08ae C0F20003 		movt	r3, #:upper16:GPS_RECDATA
 1108 08b2 9A82     		strh	r2, [r3, #20]	@ movhi
 285:../src/gps.c  **** 								temp = temp * 10;
 1109              		.loc 1 285 0 discriminator 1
 1110 08b4 FB89     		ldrh	r3, [r7, #14]	@ movhi
 1111 08b6 1A46     		mov	r2, r3	@ movhi
 1112 08b8 4FEA8202 		lsl	r2, r2, #2
 1113 08bc D318     		adds	r3, r2, r3
 1114 08be 4FEA4303 		lsl	r3, r3, #1
 1115 08c2 FB81     		strh	r3, [r7, #14]	@ movhi
 286:../src/gps.c  **** 							}
 287:../src/gps.c  **** 							while(GPS_Digits_Count > 0);
 1116              		.loc 1 287 0 discriminator 1
 1117 08c4 40F20003 		movw	r3, #:lower16:GPS_Digits_Count
 1118 08c8 C0F20003 		movt	r3, #:upper16:GPS_Digits_Count
 1119 08cc 1B78     		ldrb	r3, [r3, #0]	@ zero_extendqisi2
 1120 08ce 002B     		cmp	r3, #0
 1121 08d0 C5D1     		bne	.L55
 288:../src/gps.c  **** 							// Go to next data
 289:../src/gps.c  **** 							GPS_ProcesState = GPS_RECEIVE_NUMBER;
 1122              		.loc 1 289 0
 1123 08d2 40F20003 		movw	r3, #:lower16:GPS_ProcesState
 1124 08d6 C0F20003 		movt	r3, #:upper16:GPS_ProcesState
 1125 08da 4FF00102 		mov	r2, #1
 1126 08de 1A70     		strb	r2, [r3, #0]
 290:../src/gps.c  **** 							GPS_NextData = GPS_NEXTDATA_HDOP;
 1127              		.loc 1 290 0
 1128 08e0 40F20003 		movw	r3, #:lower16:GPS_NextData
 1129 08e4 C0F20003 		movt	r3, #:upper16:GPS_NextData
 1130 08e8 4FF00802 		mov	r2, #8
 1131 08ec 1A70     		strb	r2, [r3, #0]
 291:../src/gps.c  **** 							GPS_Digits_Count = 0;
 1132              		.loc 1 291 0
 1133 08ee 40F20003 		movw	r3, #:lower16:GPS_Digits_Count
 1134 08f2 C0F20003 		movt	r3, #:upper16:GPS_Digits_Count
 1135 08f6 4FF00002 		mov	r2, #0
 1136 08fa 1A70     		strb	r2, [r3, #0]
 292:../src/gps.c  **** 							break;
 1137              		.loc 1 292 0
 1138 08fc BFE1     		b	.L26
 1139              	.L37:
 293:../src/gps.c  **** 						}
 294:../src/gps.c  **** 						case GPS_NEXTDATA_M1:
 295:../src/gps.c  **** 						{
 296:../src/gps.c  **** 							// Go to next data
 297:../src/gps.c  **** 							GPS_ProcesState = GPS_RECEIVE_NUMBER;
 1140              		.loc 1 297 0
 1141 08fe 40F20003 		movw	r3, #:lower16:GPS_ProcesState
 1142 0902 C0F20003 		movt	r3, #:upper16:GPS_ProcesState
 1143 0906 4FF00102 		mov	r2, #1
 1144 090a 1A70     		strb	r2, [r3, #0]
 298:../src/gps.c  **** 							GPS_NextData = GPS_NEXTDATA_GG;
 1145              		.loc 1 298 0
 1146 090c 40F20003 		movw	r3, #:lower16:GPS_NextData
 1147 0910 C0F20003 		movt	r3, #:upper16:GPS_NextData
 1148 0914 4FF00B02 		mov	r2, #11
 1149 0918 1A70     		strb	r2, [r3, #0]
 299:../src/gps.c  **** 							GPS_Digits_Count = 0;
 1150              		.loc 1 299 0
 1151 091a 40F20003 		movw	r3, #:lower16:GPS_Digits_Count
 1152 091e C0F20003 		movt	r3, #:upper16:GPS_Digits_Count
 1153 0922 4FF00002 		mov	r2, #0
 1154 0926 1A70     		strb	r2, [r3, #0]
 300:../src/gps.c  **** 							break;
 1155              		.loc 1 300 0
 1156 0928 A9E1     		b	.L26
 1157              	.L28:
 301:../src/gps.c  **** 						}
 302:../src/gps.c  **** 						case GPS_NEXTDATA_DATE:
 303:../src/gps.c  **** 						{
 304:../src/gps.c  **** 							// Store received date
 305:../src/gps.c  **** 							// Store day
 306:../src/gps.c  **** 							GPS_DAY_T = ((GPS_Digits[0] - 48) * 10) + (GPS_Digits[1] - 48);
 1158              		.loc 1 306 0
 1159 092a 40F20003 		movw	r3, #:lower16:GPS_Digits
 1160 092e C0F20003 		movt	r3, #:upper16:GPS_Digits
 1161 0932 1B78     		ldrb	r3, [r3, #0]	@ zero_extendqisi2
 1162 0934 1A46     		mov	r2, r3	@ movhi
 1163 0936 4FEA8202 		lsl	r2, r2, #2
 1164 093a D318     		adds	r3, r2, r3
 1165 093c 4FEA4303 		lsl	r3, r3, #1
 1166 0940 9AB2     		uxth	r2, r3
 1167 0942 40F20003 		movw	r3, #:lower16:GPS_Digits
 1168 0946 C0F20003 		movt	r3, #:upper16:GPS_Digits
 1169 094a 5B78     		ldrb	r3, [r3, #1]	@ zero_extendqisi2
 1170 094c D318     		adds	r3, r2, r3
 1171 094e 9BB2     		uxth	r3, r3
 1172 0950 A3F50473 		sub	r3, r3, #528
 1173 0954 9AB2     		uxth	r2, r3
 1174 0956 40F20003 		movw	r3, #:lower16:GPS_RECDATA
 1175 095a C0F20003 		movt	r3, #:upper16:GPS_RECDATA
 1176 095e DA83     		strh	r2, [r3, #30]	@ movhi
 307:../src/gps.c  **** 							// Store month
 308:../src/gps.c  **** 							GPS_MONTH_T = ((GPS_Digits[2] - 48) * 10) + (GPS_Digits[3] - 48);
 1177              		.loc 1 308 0
 1178 0960 40F20003 		movw	r3, #:lower16:GPS_Digits
 1179 0964 C0F20003 		movt	r3, #:upper16:GPS_Digits
 1180 0968 9B78     		ldrb	r3, [r3, #2]	@ zero_extendqisi2
 1181 096a 1A46     		mov	r2, r3	@ movhi
 1182 096c 4FEA8202 		lsl	r2, r2, #2
 1183 0970 D318     		adds	r3, r2, r3
 1184 0972 4FEA4303 		lsl	r3, r3, #1
 1185 0976 9AB2     		uxth	r2, r3
 1186 0978 40F20003 		movw	r3, #:lower16:GPS_Digits
 1187 097c C0F20003 		movt	r3, #:upper16:GPS_Digits
 1188 0980 DB78     		ldrb	r3, [r3, #3]	@ zero_extendqisi2
 1189 0982 D318     		adds	r3, r2, r3
 1190 0984 9BB2     		uxth	r3, r3
 1191 0986 A3F50473 		sub	r3, r3, #528
 1192 098a 9AB2     		uxth	r2, r3
 1193 098c 40F20003 		movw	r3, #:lower16:GPS_RECDATA
 1194 0990 C0F20003 		movt	r3, #:upper16:GPS_RECDATA
 1195 0994 1A84     		strh	r2, [r3, #32]	@ movhi
 309:../src/gps.c  **** 							// Store year
 310:../src/gps.c  **** 							GPS_YEAR_T = ((GPS_Digits[4] - 48) * 10) + (GPS_Digits[5] - 48);
 1196              		.loc 1 310 0
 1197 0996 40F20003 		movw	r3, #:lower16:GPS_Digits
 1198 099a C0F20003 		movt	r3, #:upper16:GPS_Digits
 1199 099e 1B79     		ldrb	r3, [r3, #4]	@ zero_extendqisi2
 1200 09a0 1A46     		mov	r2, r3	@ movhi
 1201 09a2 4FEA8202 		lsl	r2, r2, #2
 1202 09a6 D318     		adds	r3, r2, r3
 1203 09a8 4FEA4303 		lsl	r3, r3, #1
 1204 09ac 9AB2     		uxth	r2, r3
 1205 09ae 40F20003 		movw	r3, #:lower16:GPS_Digits
 1206 09b2 C0F20003 		movt	r3, #:upper16:GPS_Digits
 1207 09b6 5B79     		ldrb	r3, [r3, #5]	@ zero_extendqisi2
 1208 09b8 D318     		adds	r3, r2, r3
 1209 09ba 9BB2     		uxth	r3, r3
 1210 09bc A3F50473 		sub	r3, r3, #528
 1211 09c0 9AB2     		uxth	r2, r3
 1212 09c2 40F20003 		movw	r3, #:lower16:GPS_RECDATA
 1213 09c6 C0F20003 		movt	r3, #:upper16:GPS_RECDATA
 1214 09ca 5A84     		strh	r2, [r3, #34]	@ movhi
 311:../src/gps.c  **** 							// Go to next data
 312:../src/gps.c  **** 							GPS_ProcesState = GPS_WAITFOREND;
 1215              		.loc 1 312 0
 1216 09cc 40F20003 		movw	r3, #:lower16:GPS_ProcesState
 1217 09d0 C0F20003 		movt	r3, #:upper16:GPS_ProcesState
 1218 09d4 4FF00302 		mov	r2, #3
 1219 09d8 1A70     		strb	r2, [r3, #0]
 313:../src/gps.c  **** 							GPS_NextData = GPS_NEXTDATA_VOID;
 1220              		.loc 1 313 0
 1221 09da 40F20003 		movw	r3, #:lower16:GPS_NextData
 1222 09de C0F20003 		movt	r3, #:upper16:GPS_NextData
 1223 09e2 4FF01502 		mov	r2, #21
 1224 09e6 1A70     		strb	r2, [r3, #0]
 314:../src/gps.c  **** 							GPS_Digits_Count = 0;
 1225              		.loc 1 314 0
 1226 09e8 40F20003 		movw	r3, #:lower16:GPS_Digits_Count
 1227 09ec C0F20003 		movt	r3, #:upper16:GPS_Digits_Count
 1228 09f0 4FF00002 		mov	r2, #0
 1229 09f4 1A70     		strb	r2, [r3, #0]
 315:../src/gps.c  **** 							break;
 1230              		.loc 1 315 0
 1231 09f6 42E1     		b	.L26
 1232              	.L27:
 316:../src/gps.c  **** 						}
 317:../src/gps.c  **** 						case GPS_NEXTDATA_TIME:
 318:../src/gps.c  **** 						{
 319:../src/gps.c  **** 							// Store received time
 320:../src/gps.c  **** 							// Store hours
 321:../src/gps.c  **** 							GPS_HOURS_T = 0;
 1233              		.loc 1 321 0
 1234 09f8 40F20003 		movw	r3, #:lower16:GPS_RECDATA
 1235 09fc C0F20003 		movt	r3, #:upper16:GPS_RECDATA
 1236 0a00 4FF00002 		mov	r2, #0
 1237 0a04 DA82     		strh	r2, [r3, #22]	@ movhi
 322:../src/gps.c  **** 							// Store minutes
 323:../src/gps.c  **** 							GPS_MINUTES_T = 0;
 1238              		.loc 1 323 0
 1239 0a06 40F20003 		movw	r3, #:lower16:GPS_RECDATA
 1240 0a0a C0F20003 		movt	r3, #:upper16:GPS_RECDATA
 1241 0a0e 4FF00002 		mov	r2, #0
 1242 0a12 1A83     		strh	r2, [r3, #24]	@ movhi
 324:../src/gps.c  **** 							// Store seconds
 325:../src/gps.c  **** 							GPS_SECONDS_T = 0;
 1243              		.loc 1 325 0
 1244 0a14 40F20003 		movw	r3, #:lower16:GPS_RECDATA
 1245 0a18 C0F20003 		movt	r3, #:upper16:GPS_RECDATA
 1246 0a1c 4FF00002 		mov	r2, #0
 1247 0a20 5A83     		strh	r2, [r3, #26]	@ movhi
 326:../src/gps.c  **** 							// Go to next data
 327:../src/gps.c  **** 							if(GPSFLAG_GGA)
 1248              		.loc 1 327 0
 1249 0a22 40F20003 		movw	r3, #:lower16:GPSFlag
 1250 0a26 C0F20003 		movt	r3, #:upper16:GPSFlag
 1251 0a2a 1B78     		ldrb	r3, [r3, #0]	@ zero_extendqisi2
 1252 0a2c 03F00803 		and	r3, r3, #8
 1253 0a30 DBB2     		uxtb	r3, r3
 1254 0a32 002B     		cmp	r3, #0
 1255 0a34 07D0     		beq	.L56
 328:../src/gps.c  **** 							{
 329:../src/gps.c  **** 								GPS_NextData = GPS_NEXTDATA_LATITUDE;
 1256              		.loc 1 329 0
 1257 0a36 40F20003 		movw	r3, #:lower16:GPS_NextData
 1258 0a3a C0F20003 		movt	r3, #:upper16:GPS_NextData
 1259 0a3e 4FF00202 		mov	r2, #2
 1260 0a42 1A70     		strb	r2, [r3, #0]
 1261 0a44 10E0     		b	.L57
 1262              	.L56:
 330:../src/gps.c  **** 							}
 331:../src/gps.c  **** 							else if(GPSFLAG_RMC)
 1263              		.loc 1 331 0
 1264 0a46 40F20003 		movw	r3, #:lower16:GPSFlag
 1265 0a4a C0F20003 		movt	r3, #:upper16:GPSFlag
 1266 0a4e 1B78     		ldrb	r3, [r3, #0]	@ zero_extendqisi2
 1267 0a50 03F01003 		and	r3, r3, #16
 1268 0a54 DBB2     		uxtb	r3, r3
 1269 0a56 002B     		cmp	r3, #0
 1270 0a58 06D0     		beq	.L57
 332:../src/gps.c  **** 							{
 333:../src/gps.c  **** 								GPS_NextData = GPS_NEXTDATA_STATUS;
 1271              		.loc 1 333 0
 1272 0a5a 40F20003 		movw	r3, #:lower16:GPS_NextData
 1273 0a5e C0F20003 		movt	r3, #:upper16:GPS_NextData
 1274 0a62 4FF00D02 		mov	r2, #13
 1275 0a66 1A70     		strb	r2, [r3, #0]
 1276              	.L57:
 334:../src/gps.c  **** 							}
 335:../src/gps.c  **** 							GPS_ProcesState = GPS_RECEIVE_NUMBER;
 1277              		.loc 1 335 0
 1278 0a68 40F20003 		movw	r3, #:lower16:GPS_ProcesState
 1279 0a6c C0F20003 		movt	r3, #:upper16:GPS_ProcesState
 1280 0a70 4FF00102 		mov	r2, #1
 1281 0a74 1A70     		strb	r2, [r3, #0]
 336:../src/gps.c  **** 							GPS_Digits_Count = 0;
 1282              		.loc 1 336 0
 1283 0a76 40F20003 		movw	r3, #:lower16:GPS_Digits_Count
 1284 0a7a C0F20003 		movt	r3, #:upper16:GPS_Digits_Count
 1285 0a7e 4FF00002 		mov	r2, #0
 1286 0a82 1A70     		strb	r2, [r3, #0]
 337:../src/gps.c  **** 							break;
 1287              		.loc 1 337 0
 1288 0a84 FBE0     		b	.L26
 1289              	.L29:
 338:../src/gps.c  **** 						}
 339:../src/gps.c  **** 						case GPS_NEXTDATA_LATITUDE:
 340:../src/gps.c  **** 						{
 341:../src/gps.c  **** 							// Store received latitude
 342:../src/gps.c  **** 							// Latitude =0 - 90 = 0 - 5.400 minutes
 343:../src/gps.c  **** 							GPS_LATITUDE_T = 0;
 1290              		.loc 1 343 0
 1291 0a86 40F20003 		movw	r3, #:lower16:GPS_RECDATA
 1292 0a8a C0F20003 		movt	r3, #:upper16:GPS_RECDATA
 1293 0a8e 4FF00002 		mov	r2, #0
 1294 0a92 1A80     		strh	r2, [r3, #0]	@ movhi
 344:../src/gps.c  **** 							GPS_LATITUDE_FRAC_T = 0;
 1295              		.loc 1 344 0
 1296 0a94 40F20003 		movw	r3, #:lower16:GPS_RECDATA
 1297 0a98 C0F20003 		movt	r3, #:upper16:GPS_RECDATA
 1298 0a9c 4FF00002 		mov	r2, #0
 1299 0aa0 5A80     		strh	r2, [r3, #2]	@ movhi
 345:../src/gps.c  **** 							// Go to next data
 346:../src/gps.c  **** 							GPS_NextData = GPS_NEXTDATA_NS;
 1300              		.loc 1 346 0
 1301 0aa2 40F20003 		movw	r3, #:lower16:GPS_NextData
 1302 0aa6 C0F20003 		movt	r3, #:upper16:GPS_NextData
 1303 0aaa 4FF00402 		mov	r2, #4
 1304 0aae 1A70     		strb	r2, [r3, #0]
 347:../src/gps.c  **** 							GPS_ProcesState = GPS_RECEIVE_NUMBER;
 1305              		.loc 1 347 0
 1306 0ab0 40F20003 		movw	r3, #:lower16:GPS_ProcesState
 1307 0ab4 C0F20003 		movt	r3, #:upper16:GPS_ProcesState
 1308 0ab8 4FF00102 		mov	r2, #1
 1309 0abc 1A70     		strb	r2, [r3, #0]
 348:../src/gps.c  **** 							GPS_Digits_Count = 0;
 1310              		.loc 1 348 0
 1311 0abe 40F20003 		movw	r3, #:lower16:GPS_Digits_Count
 1312 0ac2 C0F20003 		movt	r3, #:upper16:GPS_Digits_Count
 1313 0ac6 4FF00002 		mov	r2, #0
 1314 0aca 1A70     		strb	r2, [r3, #0]
 349:../src/gps.c  **** 							break;
 1315              		.loc 1 349 0
 1316 0acc D7E0     		b	.L26
 1317              	.L30:
 350:../src/gps.c  **** 						}
 351:../src/gps.c  **** 						case GPS_NEXTDATA_LONGITUDE:
 352:../src/gps.c  **** 						{
 353:../src/gps.c  **** 							// Store received longitude
 354:../src/gps.c  **** 							// Latitude =0 - 180 = 0 - 10.800 minutes
 355:../src/gps.c  **** 							GPS_LONGITUDE_T = 0;
 1318              		.loc 1 355 0
 1319 0ace 40F20003 		movw	r3, #:lower16:GPS_RECDATA
 1320 0ad2 C0F20003 		movt	r3, #:upper16:GPS_RECDATA
 1321 0ad6 4FF00002 		mov	r2, #0
 1322 0ada 9A80     		strh	r2, [r3, #4]	@ movhi
 356:../src/gps.c  **** 							GPS_LONGITUDE_FRAC_T = 0;
 1323              		.loc 1 356 0
 1324 0adc 40F20003 		movw	r3, #:lower16:GPS_RECDATA
 1325 0ae0 C0F20003 		movt	r3, #:upper16:GPS_RECDATA
 1326 0ae4 4FF00002 		mov	r2, #0
 1327 0ae8 DA80     		strh	r2, [r3, #6]	@ movhi
 357:../src/gps.c  **** 							// Go to next data
 358:../src/gps.c  **** 							GPS_NextData = GPS_NEXTDATA_EW;
 1328              		.loc 1 358 0
 1329 0aea 40F20003 		movw	r3, #:lower16:GPS_NextData
 1330 0aee C0F20003 		movt	r3, #:upper16:GPS_NextData
 1331 0af2 4FF00502 		mov	r2, #5
 1332 0af6 1A70     		strb	r2, [r3, #0]
 359:../src/gps.c  **** 							GPS_ProcesState = GPS_RECEIVE_NUMBER;
 1333              		.loc 1 359 0
 1334 0af8 40F20003 		movw	r3, #:lower16:GPS_ProcesState
 1335 0afc C0F20003 		movt	r3, #:upper16:GPS_ProcesState
 1336 0b00 4FF00102 		mov	r2, #1
 1337 0b04 1A70     		strb	r2, [r3, #0]
 360:../src/gps.c  **** 							GPS_Digits_Count = 0;
 1338              		.loc 1 360 0
 1339 0b06 40F20003 		movw	r3, #:lower16:GPS_Digits_Count
 1340 0b0a C0F20003 		movt	r3, #:upper16:GPS_Digits_Count
 1341 0b0e 4FF00002 		mov	r2, #0
 1342 0b12 1A70     		strb	r2, [r3, #0]
 361:../src/gps.c  **** 							break;
 1343              		.loc 1 361 0
 1344 0b14 B3E0     		b	.L26
 1345              	.L40:
 362:../src/gps.c  **** 						}
 363:../src/gps.c  **** 						case GPS_NEXTDATA_SPEED:
 364:../src/gps.c  **** 						{
 365:../src/gps.c  **** 							GPS_SPEED_T = 0;
 1346              		.loc 1 365 0
 1347 0b16 40F20003 		movw	r3, #:lower16:GPS_RECDATA
 1348 0b1a C0F20003 		movt	r3, #:upper16:GPS_RECDATA
 1349 0b1e 4FF00002 		mov	r2, #0
 1350 0b22 9A81     		strh	r2, [r3, #12]	@ movhi
 366:../src/gps.c  **** 							GPS_SPEED_FRAC_T = 0;
 1351              		.loc 1 366 0
 1352 0b24 40F20003 		movw	r3, #:lower16:GPS_RECDATA
 1353 0b28 C0F20003 		movt	r3, #:upper16:GPS_RECDATA
 1354 0b2c 4FF00002 		mov	r2, #0
 1355 0b30 DA81     		strh	r2, [r3, #14]	@ movhi
 367:../src/gps.c  **** 							// Go to next data
 368:../src/gps.c  **** 							GPS_NextData = GPS_NEXTDATA_HEADING;
 1356              		.loc 1 368 0
 1357 0b32 40F20003 		movw	r3, #:lower16:GPS_NextData
 1358 0b36 C0F20003 		movt	r3, #:upper16:GPS_NextData
 1359 0b3a 4FF00F02 		mov	r2, #15
 1360 0b3e 1A70     		strb	r2, [r3, #0]
 369:../src/gps.c  **** 							GPS_ProcesState = GPS_RECEIVE_NUMBER;
 1361              		.loc 1 369 0
 1362 0b40 40F20003 		movw	r3, #:lower16:GPS_ProcesState
 1363 0b44 C0F20003 		movt	r3, #:upper16:GPS_ProcesState
 1364 0b48 4FF00102 		mov	r2, #1
 1365 0b4c 1A70     		strb	r2, [r3, #0]
 370:../src/gps.c  **** 							GPS_Digits_Count = 0;
 1366              		.loc 1 370 0
 1367 0b4e 40F20003 		movw	r3, #:lower16:GPS_Digits_Count
 1368 0b52 C0F20003 		movt	r3, #:upper16:GPS_Digits_Count
 1369 0b56 4FF00002 		mov	r2, #0
 1370 0b5a 1A70     		strb	r2, [r3, #0]
 371:../src/gps.c  **** 							break;
 1371              		.loc 1 371 0
 1372 0b5c 8FE0     		b	.L26
 1373              	.L41:
 372:../src/gps.c  **** 						}
 373:../src/gps.c  **** 						case GPS_NEXTDATA_HEADING:
 374:../src/gps.c  **** 						{
 375:../src/gps.c  **** 							GPS_TRACKANGLE_T = 0;
 1374              		.loc 1 375 0
 1375 0b5e 40F20003 		movw	r3, #:lower16:GPS_RECDATA
 1376 0b62 C0F20003 		movt	r3, #:upper16:GPS_RECDATA
 1377 0b66 4FF00002 		mov	r2, #0
 1378 0b6a 1A82     		strh	r2, [r3, #16]	@ movhi
 376:../src/gps.c  **** 							GPS_TRACKANGLE_FRAC_T = 0;
 1379              		.loc 1 376 0
 1380 0b6c 40F20003 		movw	r3, #:lower16:GPS_RECDATA
 1381 0b70 C0F20003 		movt	r3, #:upper16:GPS_RECDATA
 1382 0b74 4FF00002 		mov	r2, #0
 1383 0b78 5A82     		strh	r2, [r3, #18]	@ movhi
 377:../src/gps.c  **** 							// Go to next data
 378:../src/gps.c  **** 							GPS_NextData = GPS_NEXTDATA_DATE;
 1384              		.loc 1 378 0
 1385 0b7a 40F20003 		movw	r3, #:lower16:GPS_NextData
 1386 0b7e C0F20003 		movt	r3, #:upper16:GPS_NextData
 1387 0b82 4FF00102 		mov	r2, #1
 1388 0b86 1A70     		strb	r2, [r3, #0]
 379:../src/gps.c  **** 							GPS_ProcesState = GPS_RECEIVE_NUMBER;
 1389              		.loc 1 379 0
 1390 0b88 40F20003 		movw	r3, #:lower16:GPS_ProcesState
 1391 0b8c C0F20003 		movt	r3, #:upper16:GPS_ProcesState
 1392 0b90 4FF00102 		mov	r2, #1
 1393 0b94 1A70     		strb	r2, [r3, #0]
 380:../src/gps.c  **** 							GPS_Digits_Count = 0;
 1394              		.loc 1 380 0
 1395 0b96 40F20003 		movw	r3, #:lower16:GPS_Digits_Count
 1396 0b9a C0F20003 		movt	r3, #:upper16:GPS_Digits_Count
 1397 0b9e 4FF00002 		mov	r2, #0
 1398 0ba2 1A70     		strb	r2, [r3, #0]
 381:../src/gps.c  **** 							break;
 1399              		.loc 1 381 0
 1400 0ba4 6BE0     		b	.L26
 1401              	.L35:
 382:../src/gps.c  **** 						}
 383:../src/gps.c  **** 						case GPS_NEXTDATA_HDOP:
 384:../src/gps.c  **** 						{
 385:../src/gps.c  **** 							GPS_HDOP_T = 0;
 1402              		.loc 1 385 0
 1403 0ba6 40F20003 		movw	r3, #:lower16:GPS_RECDATA
 1404 0baa C0F20003 		movt	r3, #:upper16:GPS_RECDATA
 1405 0bae 4FF00002 		mov	r2, #0
 1406 0bb2 1A85     		strh	r2, [r3, #40]	@ movhi
 386:../src/gps.c  **** 							GPS_HDOP_FRAC_T = 0;
 1407              		.loc 1 386 0
 1408 0bb4 40F20003 		movw	r3, #:lower16:GPS_RECDATA
 1409 0bb8 C0F20003 		movt	r3, #:upper16:GPS_RECDATA
 1410 0bbc 4FF00002 		mov	r2, #0
 1411 0bc0 5A85     		strh	r2, [r3, #42]	@ movhi
 387:../src/gps.c  **** 							// Go to next data
 388:../src/gps.c  **** 							GPS_NextData = GPS_NEXTDATA_ALTITUDE;
 1412              		.loc 1 388 0
 1413 0bc2 40F20003 		movw	r3, #:lower16:GPS_NextData
 1414 0bc6 C0F20003 		movt	r3, #:upper16:GPS_NextData
 1415 0bca 4FF00902 		mov	r2, #9
 1416 0bce 1A70     		strb	r2, [r3, #0]
 389:../src/gps.c  **** 							GPS_ProcesState = GPS_RECEIVE_NUMBER;
 1417              		.loc 1 389 0
 1418 0bd0 40F20003 		movw	r3, #:lower16:GPS_ProcesState
 1419 0bd4 C0F20003 		movt	r3, #:upper16:GPS_ProcesState
 1420 0bd8 4FF00102 		mov	r2, #1
 1421 0bdc 1A70     		strb	r2, [r3, #0]
 390:../src/gps.c  **** 							GPS_Digits_Count = 0;
 1422              		.loc 1 390 0
 1423 0bde 40F20003 		movw	r3, #:lower16:GPS_Digits_Count
 1424 0be2 C0F20003 		movt	r3, #:upper16:GPS_Digits_Count
 1425 0be6 4FF00002 		mov	r2, #0
 1426 0bea 1A70     		strb	r2, [r3, #0]
 391:../src/gps.c  **** 							break;
 1427              		.loc 1 391 0
 1428 0bec 47E0     		b	.L26
 1429              	.L36:
 392:../src/gps.c  **** 						}
 393:../src/gps.c  **** 						case GPS_NEXTDATA_ALTITUDE:
 394:../src/gps.c  **** 						{
 395:../src/gps.c  **** 							GPS_ALTITUDE_T = 0;
 1430              		.loc 1 395 0
 1431 0bee 40F20003 		movw	r3, #:lower16:GPS_RECDATA
 1432 0bf2 C0F20003 		movt	r3, #:upper16:GPS_RECDATA
 1433 0bf6 4FF00002 		mov	r2, #0
 1434 0bfa 1A81     		strh	r2, [r3, #8]	@ movhi
 396:../src/gps.c  **** 							GPS_ALTITUDE_FRAC_T = 0;
 1435              		.loc 1 396 0
 1436 0bfc 40F20003 		movw	r3, #:lower16:GPS_RECDATA
 1437 0c00 C0F20003 		movt	r3, #:upper16:GPS_RECDATA
 1438 0c04 4FF00002 		mov	r2, #0
 1439 0c08 5A81     		strh	r2, [r3, #10]	@ movhi
 397:../src/gps.c  **** 							// Go to next data
 398:../src/gps.c  **** 							GPS_NextData = GPS_NEXTDATA_M1;
 1440              		.loc 1 398 0
 1441 0c0a 40F20003 		movw	r3, #:lower16:GPS_NextData
 1442 0c0e C0F20003 		movt	r3, #:upper16:GPS_NextData
 1443 0c12 4FF00A02 		mov	r2, #10
 1444 0c16 1A70     		strb	r2, [r3, #0]
 399:../src/gps.c  **** 							GPS_ProcesState = GPS_RECEIVE_NUMBER;
 1445              		.loc 1 399 0
 1446 0c18 40F20003 		movw	r3, #:lower16:GPS_ProcesState
 1447 0c1c C0F20003 		movt	r3, #:upper16:GPS_ProcesState
 1448 0c20 4FF00102 		mov	r2, #1
 1449 0c24 1A70     		strb	r2, [r3, #0]
 400:../src/gps.c  **** 							GPS_Digits_Count = 0;
 1450              		.loc 1 400 0
 1451 0c26 40F20003 		movw	r3, #:lower16:GPS_Digits_Count
 1452 0c2a C0F20003 		movt	r3, #:upper16:GPS_Digits_Count
 1453 0c2e 4FF00002 		mov	r2, #0
 1454 0c32 1A70     		strb	r2, [r3, #0]
 401:../src/gps.c  **** 							break;
 1455              		.loc 1 401 0
 1456 0c34 23E0     		b	.L26
 1457              	.L38:
 402:../src/gps.c  **** 						}
 403:../src/gps.c  **** 						case GPS_NEXTDATA_GG:
 404:../src/gps.c  **** 						{
 405:../src/gps.c  **** 							GPS_GG_T = 0;
 1458              		.loc 1 405 0
 1459 0c36 40F20003 		movw	r3, #:lower16:GPS_RECDATA
 1460 0c3a C0F20003 		movt	r3, #:upper16:GPS_RECDATA
 1461 0c3e 4FF00002 		mov	r2, #0
 1462 0c42 9A85     		strh	r2, [r3, #44]	@ movhi
 406:../src/gps.c  **** 							GPS_GG_FRAC_T = 0;
 1463              		.loc 1 406 0
 1464 0c44 40F20003 		movw	r3, #:lower16:GPS_RECDATA
 1465 0c48 C0F20003 		movt	r3, #:upper16:GPS_RECDATA
 1466 0c4c 4FF00002 		mov	r2, #0
 1467 0c50 DA85     		strh	r2, [r3, #46]	@ movhi
 407:../src/gps.c  **** 							// Go to next data
 408:../src/gps.c  **** 							GPS_NextData = GPS_NEXTDATA_VOID;
 1468              		.loc 1 408 0
 1469 0c52 40F20003 		movw	r3, #:lower16:GPS_NextData
 1470 0c56 C0F20003 		movt	r3, #:upper16:GPS_NextData
 1471 0c5a 4FF01502 		mov	r2, #21
 1472 0c5e 1A70     		strb	r2, [r3, #0]
 409:../src/gps.c  **** 							GPS_ProcesState = GPS_WAITFOREND;
 1473              		.loc 1 409 0
 1474 0c60 40F20003 		movw	r3, #:lower16:GPS_ProcesState
 1475 0c64 C0F20003 		movt	r3, #:upper16:GPS_ProcesState
 1476 0c68 4FF00302 		mov	r2, #3
 1477 0c6c 1A70     		strb	r2, [r3, #0]
 410:../src/gps.c  **** 							GPS_Digits_Count = 0;
 1478              		.loc 1 410 0
 1479 0c6e 40F20003 		movw	r3, #:lower16:GPS_Digits_Count
 1480 0c72 C0F20003 		movt	r3, #:upper16:GPS_Digits_Count
 1481 0c76 4FF00002 		mov	r2, #0
 1482 0c7a 1A70     		strb	r2, [r3, #0]
 411:../src/gps.c  **** 							break;
 1483              		.loc 1 411 0
 1484 0c7c 00BF     		nop
 1485              	.L26:
 412:../src/gps.c  **** 						}
 413:../src/gps.c  **** 					}
 414:../src/gps.c  **** 					GPS_Digits[0] = 0;
 1486              		.loc 1 414 0
 1487 0c7e 40F20003 		movw	r3, #:lower16:GPS_Digits
 1488 0c82 C0F20003 		movt	r3, #:upper16:GPS_Digits
 1489 0c86 4FF00002 		mov	r2, #0
 1490 0c8a 1A70     		strb	r2, [r3, #0]
 415:../src/gps.c  **** 					GPS_Digits[1] = 0;
 1491              		.loc 1 415 0
 1492 0c8c 40F20003 		movw	r3, #:lower16:GPS_Digits
 1493 0c90 C0F20003 		movt	r3, #:upper16:GPS_Digits
 1494 0c94 4FF00002 		mov	r2, #0
 1495 0c98 5A70     		strb	r2, [r3, #1]
 416:../src/gps.c  **** 					GPS_Digits[2] = 0;
 1496              		.loc 1 416 0
 1497 0c9a 40F20003 		movw	r3, #:lower16:GPS_Digits
 1498 0c9e C0F20003 		movt	r3, #:upper16:GPS_Digits
 1499 0ca2 4FF00002 		mov	r2, #0
 1500 0ca6 9A70     		strb	r2, [r3, #2]
 417:../src/gps.c  **** 					GPS_Digits[3] = 0;
 1501              		.loc 1 417 0
 1502 0ca8 40F20003 		movw	r3, #:lower16:GPS_Digits
 1503 0cac C0F20003 		movt	r3, #:upper16:GPS_Digits
 1504 0cb0 4FF00002 		mov	r2, #0
 1505 0cb4 DA70     		strb	r2, [r3, #3]
 418:../src/gps.c  **** 				}
 419:../src/gps.c  **** 				else if(data == '.')
 420:../src/gps.c  **** 				{
 421:../src/gps.c  **** 					// Go to receiving fraction part
 422:../src/gps.c  **** 					GPS_ProcesState = GPS_RECEIVE_NUMFRAC;
 423:../src/gps.c  **** 					GPS_DataTemp_Count = 0;
 424:../src/gps.c  **** 					GPS_DataTemp = 0;
 425:../src/gps.c  **** 				}
 426:../src/gps.c  **** 				else if(data == 0x0D)
 427:../src/gps.c  **** 				{
 428:../src/gps.c  **** 					// CR
 429:../src/gps.c  **** 					GPSFLAG_CR_RECEIVED = 1;
 430:../src/gps.c  **** 				}
 431:../src/gps.c  **** 				else if(data == 0x0A)
 432:../src/gps.c  **** 				{
 433:../src/gps.c  **** 					// LF
 434:../src/gps.c  **** 					if(GPSFLAG_CR_RECEIVED)
 435:../src/gps.c  **** 					{
 436:../src/gps.c  **** 						// GPS_Digits[0] = high char;
 437:../src/gps.c  **** 						// GPS_Digits[1] = low char;
 438:../src/gps.c  **** 						// Check that data is OK
 439:../src/gps.c  **** 						if((GPS_Digits[0] == GPS_GetChar(GPS_Checksum_Save, SET))&&(GPS_Digits[1] == GPS_GetChar(GPS_
 440:../src/gps.c  **** 						{
 441:../src/gps.c  **** 							// Data is OK, store
 442:../src/gps.c  **** 							for(temp = 0; temp < 24; temp++)
 443:../src/gps.c  **** 							{
 444:../src/gps.c  **** 								MODBUSReg[temp + 2] = GPS_RECDATA[temp];
 445:../src/gps.c  **** 							}
 446:../src/gps.c  **** 							// Mark GPS OK
 447:../src/gps.c  **** 							SCR2 = SCR2 | SCR2_GPSOK;
 448:../src/gps.c  **** 							/*
 449:../src/gps.c  **** 							GPS_LATITUDE = GPS_LATITUDE_T;
 450:../src/gps.c  **** 							GPS_LONGITUDE = GPS_LONGITUDE_T;
 451:../src/gps.c  **** 							GPS_ALTITUDE = GPS_ALTITUDE_T;
 452:../src/gps.c  **** 							GPS_SPEED = GPS_SPEED_T;
 453:../src/gps.c  **** 							GPS_TRACKANGLE = GPS_TRACKANGLE_T;
 454:../src/gps.c  **** 							GPS_SATSTATUS = GPS_SATSTATUS_T;
 455:../src/gps.c  **** 							GPS_HOURS = GPS_HOURS_T;
 456:../src/gps.c  **** 							GPS_MINUTES	= GPS_MINUTES_T;
 457:../src/gps.c  **** 							GPS_SECONDS = GPS_SECONDS_T;
 458:../src/gps.c  **** 							GPS_DAY	= GPS_DAY_T;
 459:../src/gps.c  **** 							GPS_MONTH = GPS_MONTH_T;
 460:../src/gps.c  **** 							GPS_YEAR = GPS_YEAR_T;
 461:../src/gps.c  **** 							GPS_LATITUDE_FRAC = GPS_LATITUDE_FRAC_T;
 462:../src/gps.c  **** 							GPS_LONGITUDE_FRAC = GPS_LONGITUDE_FRAC_T;
 463:../src/gps.c  **** 							GPS_NS_EW = GPS_NS_EW_T;
 464:../src/gps.c  **** 							GPS_VALID = GPS_VALID_T;
 465:../src/gps.c  **** 							GPS_DOP = GPS_DOP_T;
 466:../src/gps.c  **** 							*/
 467:../src/gps.c  **** 						}
 468:../src/gps.c  **** 						else
 469:../src/gps.c  **** 						{
 470:../src/gps.c  **** 							// Mark GPS NOT OK
 471:../src/gps.c  **** 							SCR2 = SCR2 & ~SCR2_GPSOK;
 472:../src/gps.c  **** 						}
 473:../src/gps.c  **** 						GPS_NextData = GPS_NEXTDATA_VOID;
 474:../src/gps.c  **** 						GPS_ProcesState = GPS_WAITINGSTART;
 475:../src/gps.c  **** 						GPS_Digits_Count = 0;
 476:../src/gps.c  **** 					}
 477:../src/gps.c  **** 				}
 478:../src/gps.c  **** 				else if(data == '$')
 479:../src/gps.c  **** 				{
 480:../src/gps.c  **** 					GPS_ProcesState = GPS_RECEIVE_NUMBER;
 481:../src/gps.c  **** 					GPS_NextData = GPS_NEXTDATA_DATACODE;
 482:../src/gps.c  **** 					// Go to next data
 483:../src/gps.c  **** 					GPS_Digits[0] = 0;
 484:../src/gps.c  **** 					GPS_Digits[1] = 0;
 485:../src/gps.c  **** 					GPS_Digits_Count = 0;
 486:../src/gps.c  **** 					GPSFLAG_CR_RECEIVED = 0;
 487:../src/gps.c  **** 				}
 488:../src/gps.c  **** 				else
 489:../src/gps.c  **** 				{
 490:../src/gps.c  **** 					GPS_Digits[GPS_Digits_Count] = data;
 491:../src/gps.c  **** 					GPS_Digits_Count++;
 492:../src/gps.c  **** 				}
 493:../src/gps.c  **** 				break;
 1506              		.loc 1 493 0
 1507 0cb6 00F083BD 		b	.L92
 1508              	.L25:
 419:../src/gps.c  **** 				else if(data == '.')
 1509              		.loc 1 419 0
 1510 0cba FB79     		ldrb	r3, [r7, #7]	@ zero_extendqisi2
 1511 0cbc 2E2B     		cmp	r3, #46
 1512 0cbe 16D1     		bne	.L59
 422:../src/gps.c  **** 					GPS_ProcesState = GPS_RECEIVE_NUMFRAC;
 1513              		.loc 1 422 0
 1514 0cc0 40F20003 		movw	r3, #:lower16:GPS_ProcesState
 1515 0cc4 C0F20003 		movt	r3, #:upper16:GPS_ProcesState
 1516 0cc8 4FF00202 		mov	r2, #2
 1517 0ccc 1A70     		strb	r2, [r3, #0]
 423:../src/gps.c  **** 					GPS_DataTemp_Count = 0;
 1518              		.loc 1 423 0
 1519 0cce 40F20003 		movw	r3, #:lower16:GPS_DataTemp_Count
 1520 0cd2 C0F20003 		movt	r3, #:upper16:GPS_DataTemp_Count
 1521 0cd6 4FF00002 		mov	r2, #0
 1522 0cda 1A70     		strb	r2, [r3, #0]
 424:../src/gps.c  **** 					GPS_DataTemp = 0;
 1523              		.loc 1 424 0
 1524 0cdc 40F20003 		movw	r3, #:lower16:GPS_DataTemp
 1525 0ce0 C0F20003 		movt	r3, #:upper16:GPS_DataTemp
 1526 0ce4 4FF00002 		mov	r2, #0
 1527 0ce8 1A80     		strh	r2, [r3, #0]	@ movhi
 1528              		.loc 1 493 0
 1529 0cea 00F069BD 		b	.L92
 1530              	.L59:
 426:../src/gps.c  **** 				else if(data == 0x0D)
 1531              		.loc 1 426 0
 1532 0cee FB79     		ldrb	r3, [r7, #7]	@ zero_extendqisi2
 1533 0cf0 0D2B     		cmp	r3, #13
 1534 0cf2 09D1     		bne	.L60
 429:../src/gps.c  **** 					GPSFLAG_CR_RECEIVED = 1;
 1535              		.loc 1 429 0
 1536 0cf4 40F20003 		movw	r3, #:lower16:GPSFlag
 1537 0cf8 C0F20003 		movt	r3, #:upper16:GPSFlag
 1538 0cfc 1A78     		ldrb	r2, [r3, #0]
 1539 0cfe 42F02002 		orr	r2, r2, #32
 1540 0d02 1A70     		strb	r2, [r3, #0]
 1541              		.loc 1 493 0
 1542 0d04 00F05CBD 		b	.L92
 1543              	.L60:
 431:../src/gps.c  **** 				else if(data == 0x0A)
 1544              		.loc 1 431 0
 1545 0d08 FB79     		ldrb	r3, [r7, #7]	@ zero_extendqisi2
 1546 0d0a 0A2B     		cmp	r3, #10
 1547 0d0c 7BD1     		bne	.L61
 434:../src/gps.c  **** 					if(GPSFLAG_CR_RECEIVED)
 1548              		.loc 1 434 0
 1549 0d0e 40F20003 		movw	r3, #:lower16:GPSFlag
 1550 0d12 C0F20003 		movt	r3, #:upper16:GPSFlag
 1551 0d16 1B78     		ldrb	r3, [r3, #0]	@ zero_extendqisi2
 1552 0d18 03F02003 		and	r3, r3, #32
 1553 0d1c DBB2     		uxtb	r3, r3
 1554 0d1e 002B     		cmp	r3, #0
 1555 0d20 00F04E85 		beq	.L92
 439:../src/gps.c  **** 						if((GPS_Digits[0] == GPS_GetChar(GPS_Checksum_Save, SET))&&(GPS_Digits[1] == GPS_GetChar(GPS_
 1556              		.loc 1 439 0
 1557 0d24 40F20003 		movw	r3, #:lower16:GPS_Digits
 1558 0d28 C0F20003 		movt	r3, #:upper16:GPS_Digits
 1559 0d2c 1C78     		ldrb	r4, [r3, #0]	@ zero_extendqisi2
 1560 0d2e 40F20003 		movw	r3, #:lower16:GPS_Checksum_Save
 1561 0d32 C0F20003 		movt	r3, #:upper16:GPS_Checksum_Save
 1562 0d36 1B78     		ldrb	r3, [r3, #0]	@ zero_extendqisi2
 1563 0d38 1846     		mov	r0, r3
 1564 0d3a 4FF00101 		mov	r1, #1
 1565 0d3e FFF7FEFF 		bl	GPS_GetChar
 1566 0d42 0346     		mov	r3, r0
 1567 0d44 9C42     		cmp	r4, r3
 1568 0d46 3AD1     		bne	.L62
 439:../src/gps.c  **** 						if((GPS_Digits[0] == GPS_GetChar(GPS_Checksum_Save, SET))&&(GPS_Digits[1] == GPS_GetChar(GPS_
 1569              		.loc 1 439 0 is_stmt 0 discriminator 1
 1570 0d48 40F20003 		movw	r3, #:lower16:GPS_Digits
 1571 0d4c C0F20003 		movt	r3, #:upper16:GPS_Digits
 1572 0d50 5C78     		ldrb	r4, [r3, #1]	@ zero_extendqisi2
 1573 0d52 40F20003 		movw	r3, #:lower16:GPS_Checksum_Save
 1574 0d56 C0F20003 		movt	r3, #:upper16:GPS_Checksum_Save
 1575 0d5a 1B78     		ldrb	r3, [r3, #0]	@ zero_extendqisi2
 1576 0d5c 1846     		mov	r0, r3
 1577 0d5e 4FF00001 		mov	r1, #0
 1578 0d62 FFF7FEFF 		bl	GPS_GetChar
 1579 0d66 0346     		mov	r3, r0
 1580 0d68 9C42     		cmp	r4, r3
 1581 0d6a 28D1     		bne	.L62
 442:../src/gps.c  **** 							for(temp = 0; temp < 24; temp++)
 1582              		.loc 1 442 0 is_stmt 1
 1583 0d6c 4FF00003 		mov	r3, #0
 1584 0d70 FB81     		strh	r3, [r7, #14]	@ movhi
 1585 0d72 13E0     		b	.L63
 1586              	.L64:
 444:../src/gps.c  **** 								MODBUSReg[temp + 2] = GPS_RECDATA[temp];
 1587              		.loc 1 444 0 discriminator 2
 1588 0d74 FB89     		ldrh	r3, [r7, #14]
 1589 0d76 03F10202 		add	r2, r3, #2
 1590 0d7a F989     		ldrh	r1, [r7, #14]
 1591 0d7c 40F20003 		movw	r3, #:lower16:GPS_RECDATA
 1592 0d80 C0F20003 		movt	r3, #:upper16:GPS_RECDATA
 1593 0d84 33F81110 		ldrh	r1, [r3, r1, lsl #1]
 1594 0d88 40F20003 		movw	r3, #:lower16:MODBUSReg
 1595 0d8c C0F20003 		movt	r3, #:upper16:MODBUSReg
 1596 0d90 23F81210 		strh	r1, [r3, r2, lsl #1]	@ movhi
 442:../src/gps.c  **** 							for(temp = 0; temp < 24; temp++)
 1597              		.loc 1 442 0 discriminator 2
 1598 0d94 FB89     		ldrh	r3, [r7, #14]	@ movhi
 1599 0d96 03F10103 		add	r3, r3, #1
 1600 0d9a FB81     		strh	r3, [r7, #14]	@ movhi
 1601              	.L63:
 442:../src/gps.c  **** 							for(temp = 0; temp < 24; temp++)
 1602              		.loc 1 442 0 is_stmt 0 discriminator 1
 1603 0d9c FB89     		ldrh	r3, [r7, #14]
 1604 0d9e 172B     		cmp	r3, #23
 1605 0da0 E8D9     		bls	.L64
 447:../src/gps.c  **** 							SCR2 = SCR2 | SCR2_GPSOK;
 1606              		.loc 1 447 0 is_stmt 1
 1607 0da2 40F20003 		movw	r3, #:lower16:MODBUSReg
 1608 0da6 C0F20003 		movt	r3, #:upper16:MODBUSReg
 1609 0daa 5B88     		ldrh	r3, [r3, #2]
 1610 0dac 43F02003 		orr	r3, r3, #32
 1611 0db0 9AB2     		uxth	r2, r3
 1612 0db2 40F20003 		movw	r3, #:lower16:MODBUSReg
 1613 0db6 C0F20003 		movt	r3, #:upper16:MODBUSReg
 1614 0dba 5A80     		strh	r2, [r3, #2]	@ movhi
 1615 0dbc 0CE0     		b	.L65
 1616              	.L62:
 471:../src/gps.c  **** 							SCR2 = SCR2 & ~SCR2_GPSOK;
 1617              		.loc 1 471 0
 1618 0dbe 40F20003 		movw	r3, #:lower16:MODBUSReg
 1619 0dc2 C0F20003 		movt	r3, #:upper16:MODBUSReg
 1620 0dc6 5B88     		ldrh	r3, [r3, #2]
 1621 0dc8 23F02003 		bic	r3, r3, #32
 1622 0dcc 9AB2     		uxth	r2, r3
 1623 0dce 40F20003 		movw	r3, #:lower16:MODBUSReg
 1624 0dd2 C0F20003 		movt	r3, #:upper16:MODBUSReg
 1625 0dd6 5A80     		strh	r2, [r3, #2]	@ movhi
 1626              	.L65:
 473:../src/gps.c  **** 						GPS_NextData = GPS_NEXTDATA_VOID;
 1627              		.loc 1 473 0
 1628 0dd8 40F20003 		movw	r3, #:lower16:GPS_NextData
 1629 0ddc C0F20003 		movt	r3, #:upper16:GPS_NextData
 1630 0de0 4FF01502 		mov	r2, #21
 1631 0de4 1A70     		strb	r2, [r3, #0]
 474:../src/gps.c  **** 						GPS_ProcesState = GPS_WAITINGSTART;
 1632              		.loc 1 474 0
 1633 0de6 40F20003 		movw	r3, #:lower16:GPS_ProcesState
 1634 0dea C0F20003 		movt	r3, #:upper16:GPS_ProcesState
 1635 0dee 4FF00002 		mov	r2, #0
 1636 0df2 1A70     		strb	r2, [r3, #0]
 475:../src/gps.c  **** 						GPS_Digits_Count = 0;
 1637              		.loc 1 475 0
 1638 0df4 40F20003 		movw	r3, #:lower16:GPS_Digits_Count
 1639 0df8 C0F20003 		movt	r3, #:upper16:GPS_Digits_Count
 1640 0dfc 4FF00002 		mov	r2, #0
 1641 0e00 1A70     		strb	r2, [r3, #0]
 1642              		.loc 1 493 0
 1643 0e02 00F0DDBC 		b	.L92
 1644              	.L61:
 478:../src/gps.c  **** 				else if(data == '$')
 1645              		.loc 1 478 0
 1646 0e06 FB79     		ldrb	r3, [r7, #7]	@ zero_extendqisi2
 1647 0e08 242B     		cmp	r3, #36
 1648 0e0a 2CD1     		bne	.L66
 480:../src/gps.c  **** 					GPS_ProcesState = GPS_RECEIVE_NUMBER;
 1649              		.loc 1 480 0
 1650 0e0c 40F20003 		movw	r3, #:lower16:GPS_ProcesState
 1651 0e10 C0F20003 		movt	r3, #:upper16:GPS_ProcesState
 1652 0e14 4FF00102 		mov	r2, #1
 1653 0e18 1A70     		strb	r2, [r3, #0]
 481:../src/gps.c  **** 					GPS_NextData = GPS_NEXTDATA_DATACODE;
 1654              		.loc 1 481 0
 1655 0e1a 40F20003 		movw	r3, #:lower16:GPS_NextData
 1656 0e1e C0F20003 		movt	r3, #:upper16:GPS_NextData
 1657 0e22 4FF01302 		mov	r2, #19
 1658 0e26 1A70     		strb	r2, [r3, #0]
 483:../src/gps.c  **** 					GPS_Digits[0] = 0;
 1659              		.loc 1 483 0
 1660 0e28 40F20003 		movw	r3, #:lower16:GPS_Digits
 1661 0e2c C0F20003 		movt	r3, #:upper16:GPS_Digits
 1662 0e30 4FF00002 		mov	r2, #0
 1663 0e34 1A70     		strb	r2, [r3, #0]
 484:../src/gps.c  **** 					GPS_Digits[1] = 0;
 1664              		.loc 1 484 0
 1665 0e36 40F20003 		movw	r3, #:lower16:GPS_Digits
 1666 0e3a C0F20003 		movt	r3, #:upper16:GPS_Digits
 1667 0e3e 4FF00002 		mov	r2, #0
 1668 0e42 5A70     		strb	r2, [r3, #1]
 485:../src/gps.c  **** 					GPS_Digits_Count = 0;
 1669              		.loc 1 485 0
 1670 0e44 40F20003 		movw	r3, #:lower16:GPS_Digits_Count
 1671 0e48 C0F20003 		movt	r3, #:upper16:GPS_Digits_Count
 1672 0e4c 4FF00002 		mov	r2, #0
 1673 0e50 1A70     		strb	r2, [r3, #0]
 486:../src/gps.c  **** 					GPSFLAG_CR_RECEIVED = 0;
 1674              		.loc 1 486 0
 1675 0e52 40F20003 		movw	r3, #:lower16:GPSFlag
 1676 0e56 C0F20003 		movt	r3, #:upper16:GPSFlag
 1677 0e5a 1A78     		ldrb	r2, [r3, #0]
 1678 0e5c 6FF34512 		bfc	r2, #5, #1
 1679 0e60 1A70     		strb	r2, [r3, #0]
 1680              		.loc 1 493 0
 1681 0e62 00F0ADBC 		b	.L92
 1682              	.L66:
 490:../src/gps.c  **** 					GPS_Digits[GPS_Digits_Count] = data;
 1683              		.loc 1 490 0
 1684 0e66 40F20003 		movw	r3, #:lower16:GPS_Digits_Count
 1685 0e6a C0F20003 		movt	r3, #:upper16:GPS_Digits_Count
 1686 0e6e 1B78     		ldrb	r3, [r3, #0]	@ zero_extendqisi2
 1687 0e70 1A46     		mov	r2, r3
 1688 0e72 40F20003 		movw	r3, #:lower16:GPS_Digits
 1689 0e76 C0F20003 		movt	r3, #:upper16:GPS_Digits
 1690 0e7a F979     		ldrb	r1, [r7, #7]
 1691 0e7c 9954     		strb	r1, [r3, r2]
 491:../src/gps.c  **** 					GPS_Digits_Count++;
 1692              		.loc 1 491 0
 1693 0e7e 40F20003 		movw	r3, #:lower16:GPS_Digits_Count
 1694 0e82 C0F20003 		movt	r3, #:upper16:GPS_Digits_Count
 1695 0e86 1B78     		ldrb	r3, [r3, #0]	@ zero_extendqisi2
 1696 0e88 03F10103 		add	r3, r3, #1
 1697 0e8c DAB2     		uxtb	r2, r3
 1698 0e8e 40F20003 		movw	r3, #:lower16:GPS_Digits_Count
 1699 0e92 C0F20003 		movt	r3, #:upper16:GPS_Digits_Count
 1700 0e96 1A70     		strb	r2, [r3, #0]
 1701              		.loc 1 493 0
 1702 0e98 00F092BC 		b	.L92
 1703              	.L21:
 494:../src/gps.c  **** 			}
 495:../src/gps.c  **** 			case GPS_RECEIVE_NUMFRAC:
 496:../src/gps.c  **** 			{
 497:../src/gps.c  **** 				if(data == ',')
 1704              		.loc 1 497 0
 1705 0e9c FB79     		ldrb	r3, [r7, #7]	@ zero_extendqisi2
 1706 0e9e 2C2B     		cmp	r3, #44
 1707 0ea0 40F0DE83 		bne	.L67
 498:../src/gps.c  **** 				{
 499:../src/gps.c  **** 					// Store data and go to next data
 500:../src/gps.c  **** 					switch(GPS_NextData)
 1708              		.loc 1 500 0
 1709 0ea4 40F20003 		movw	r3, #:lower16:GPS_NextData
 1710 0ea8 C0F20003 		movt	r3, #:upper16:GPS_NextData
 1711 0eac 1B78     		ldrb	r3, [r3, #0]	@ zero_extendqisi2
 1712 0eae 132B     		cmp	r3, #19
 1713 0eb0 00F2B983 		bhi	.L68
 1714 0eb4 01A2     		adr	r2, .L78
 1715 0eb6 52F823F0 		ldr	pc, [r2, r3, lsl #2]
 1716 0eba 00BF     		.align	2
 1717              	.L78:
 1718 0ebc 0D0F0000 		.word	.L69+1
 1719 0ec0 FB150000 		.word	.L70+1
 1720 0ec4 27100000 		.word	.L71+1
 1721 0ec8 03110000 		.word	.L72+1
 1722 0ecc FB150000 		.word	.L70+1
 1723 0ed0 FB150000 		.word	.L70+1
 1724 0ed4 FB150000 		.word	.L70+1
 1725 0ed8 FB150000 		.word	.L70+1
 1726 0edc A3130000 		.word	.L73+1
 1727 0ee0 6B140000 		.word	.L74+1
 1728 0ee4 FB150000 		.word	.L70+1
 1729 0ee8 33150000 		.word	.L75+1
 1730 0eec 27160000 		.word	.L68+1
 1731 0ef0 FB150000 		.word	.L70+1
 1732 0ef4 13120000 		.word	.L76+1
 1733 0ef8 DB120000 		.word	.L77+1
 1734 0efc 27160000 		.word	.L68+1
 1735 0f00 27160000 		.word	.L68+1
 1736 0f04 27160000 		.word	.L68+1
 1737 0f08 FB150000 		.word	.L70+1
 1738              	.L69:
 501:../src/gps.c  **** 					{
 502:../src/gps.c  **** 						// Case data received is time
 503:../src/gps.c  **** 						case GPS_NEXTDATA_TIME:
 504:../src/gps.c  **** 						{
 505:../src/gps.c  **** 							// Store received time
 506:../src/gps.c  **** 							// Store hours
 507:../src/gps.c  **** 							GPS_HOURS_T = ((GPS_Digits[0] - 48) * 10) + (GPS_Digits[1] - 48);
 1739              		.loc 1 507 0
 1740 0f0c 40F20003 		movw	r3, #:lower16:GPS_Digits
 1741 0f10 C0F20003 		movt	r3, #:upper16:GPS_Digits
 1742 0f14 1B78     		ldrb	r3, [r3, #0]	@ zero_extendqisi2
 1743 0f16 1A46     		mov	r2, r3	@ movhi
 1744 0f18 4FEA8202 		lsl	r2, r2, #2
 1745 0f1c D318     		adds	r3, r2, r3
 1746 0f1e 4FEA4303 		lsl	r3, r3, #1
 1747 0f22 9AB2     		uxth	r2, r3
 1748 0f24 40F20003 		movw	r3, #:lower16:GPS_Digits
 1749 0f28 C0F20003 		movt	r3, #:upper16:GPS_Digits
 1750 0f2c 5B78     		ldrb	r3, [r3, #1]	@ zero_extendqisi2
 1751 0f2e D318     		adds	r3, r2, r3
 1752 0f30 9BB2     		uxth	r3, r3
 1753 0f32 A3F50473 		sub	r3, r3, #528
 1754 0f36 9AB2     		uxth	r2, r3
 1755 0f38 40F20003 		movw	r3, #:lower16:GPS_RECDATA
 1756 0f3c C0F20003 		movt	r3, #:upper16:GPS_RECDATA
 1757 0f40 DA82     		strh	r2, [r3, #22]	@ movhi
 508:../src/gps.c  **** 							// Store minutes
 509:../src/gps.c  **** 							GPS_MINUTES_T = ((GPS_Digits[2] - 48) * 10) + (GPS_Digits[3] - 48);
 1758              		.loc 1 509 0
 1759 0f42 40F20003 		movw	r3, #:lower16:GPS_Digits
 1760 0f46 C0F20003 		movt	r3, #:upper16:GPS_Digits
 1761 0f4a 9B78     		ldrb	r3, [r3, #2]	@ zero_extendqisi2
 1762 0f4c 1A46     		mov	r2, r3	@ movhi
 1763 0f4e 4FEA8202 		lsl	r2, r2, #2
 1764 0f52 D318     		adds	r3, r2, r3
 1765 0f54 4FEA4303 		lsl	r3, r3, #1
 1766 0f58 9AB2     		uxth	r2, r3
 1767 0f5a 40F20003 		movw	r3, #:lower16:GPS_Digits
 1768 0f5e C0F20003 		movt	r3, #:upper16:GPS_Digits
 1769 0f62 DB78     		ldrb	r3, [r3, #3]	@ zero_extendqisi2
 1770 0f64 D318     		adds	r3, r2, r3
 1771 0f66 9BB2     		uxth	r3, r3
 1772 0f68 A3F50473 		sub	r3, r3, #528
 1773 0f6c 9AB2     		uxth	r2, r3
 1774 0f6e 40F20003 		movw	r3, #:lower16:GPS_RECDATA
 1775 0f72 C0F20003 		movt	r3, #:upper16:GPS_RECDATA
 1776 0f76 1A83     		strh	r2, [r3, #24]	@ movhi
 510:../src/gps.c  **** 							// Store seconds
 511:../src/gps.c  **** 							GPS_SECONDS_T = ((GPS_Digits[4] - 48) * 10) + (GPS_Digits[5] - 48);
 1777              		.loc 1 511 0
 1778 0f78 40F20003 		movw	r3, #:lower16:GPS_Digits
 1779 0f7c C0F20003 		movt	r3, #:upper16:GPS_Digits
 1780 0f80 1B79     		ldrb	r3, [r3, #4]	@ zero_extendqisi2
 1781 0f82 1A46     		mov	r2, r3	@ movhi
 1782 0f84 4FEA8202 		lsl	r2, r2, #2
 1783 0f88 D318     		adds	r3, r2, r3
 1784 0f8a 4FEA4303 		lsl	r3, r3, #1
 1785 0f8e 9AB2     		uxth	r2, r3
 1786 0f90 40F20003 		movw	r3, #:lower16:GPS_Digits
 1787 0f94 C0F20003 		movt	r3, #:upper16:GPS_Digits
 1788 0f98 5B79     		ldrb	r3, [r3, #5]	@ zero_extendqisi2
 1789 0f9a D318     		adds	r3, r2, r3
 1790 0f9c 9BB2     		uxth	r3, r3
 1791 0f9e A3F50473 		sub	r3, r3, #528
 1792 0fa2 9AB2     		uxth	r2, r3
 1793 0fa4 40F20003 		movw	r3, #:lower16:GPS_RECDATA
 1794 0fa8 C0F20003 		movt	r3, #:upper16:GPS_RECDATA
 1795 0fac 5A83     		strh	r2, [r3, #26]	@ movhi
 512:../src/gps.c  **** 							// Store milliseconds
 513:../src/gps.c  **** 							GPS_MILISECONDS_T = GPS_DataTemp;
 1796              		.loc 1 513 0
 1797 0fae 40F20003 		movw	r3, #:lower16:GPS_DataTemp
 1798 0fb2 C0F20003 		movt	r3, #:upper16:GPS_DataTemp
 1799 0fb6 1A88     		ldrh	r2, [r3, #0]
 1800 0fb8 40F20003 		movw	r3, #:lower16:GPS_RECDATA
 1801 0fbc C0F20003 		movt	r3, #:upper16:GPS_RECDATA
 1802 0fc0 9A83     		strh	r2, [r3, #28]	@ movhi
 514:../src/gps.c  **** 							// Go to next data
 515:../src/gps.c  **** 							if(GPSFLAG_GGA)
 1803              		.loc 1 515 0
 1804 0fc2 40F20003 		movw	r3, #:lower16:GPSFlag
 1805 0fc6 C0F20003 		movt	r3, #:upper16:GPSFlag
 1806 0fca 1B78     		ldrb	r3, [r3, #0]	@ zero_extendqisi2
 1807 0fcc 03F00803 		and	r3, r3, #8
 1808 0fd0 DBB2     		uxtb	r3, r3
 1809 0fd2 002B     		cmp	r3, #0
 1810 0fd4 07D0     		beq	.L79
 516:../src/gps.c  **** 							{
 517:../src/gps.c  **** 								GPS_NextData = GPS_NEXTDATA_LATITUDE;
 1811              		.loc 1 517 0
 1812 0fd6 40F20003 		movw	r3, #:lower16:GPS_NextData
 1813 0fda C0F20003 		movt	r3, #:upper16:GPS_NextData
 1814 0fde 4FF00202 		mov	r2, #2
 1815 0fe2 1A70     		strb	r2, [r3, #0]
 1816 0fe4 10E0     		b	.L80
 1817              	.L79:
 518:../src/gps.c  **** 							}
 519:../src/gps.c  **** 							else if(GPSFLAG_RMC)
 1818              		.loc 1 519 0
 1819 0fe6 40F20003 		movw	r3, #:lower16:GPSFlag
 1820 0fea C0F20003 		movt	r3, #:upper16:GPSFlag
 1821 0fee 1B78     		ldrb	r3, [r3, #0]	@ zero_extendqisi2
 1822 0ff0 03F01003 		and	r3, r3, #16
 1823 0ff4 DBB2     		uxtb	r3, r3
 1824 0ff6 002B     		cmp	r3, #0
 1825 0ff8 06D0     		beq	.L80
 520:../src/gps.c  **** 							{
 521:../src/gps.c  **** 								GPS_NextData = GPS_NEXTDATA_STATUS;
 1826              		.loc 1 521 0
 1827 0ffa 40F20003 		movw	r3, #:lower16:GPS_NextData
 1828 0ffe C0F20003 		movt	r3, #:upper16:GPS_NextData
 1829 1002 4FF00D02 		mov	r2, #13
 1830 1006 1A70     		strb	r2, [r3, #0]
 1831              	.L80:
 522:../src/gps.c  **** 							}
 523:../src/gps.c  **** 							GPS_ProcesState = GPS_RECEIVE_NUMBER;
 1832              		.loc 1 523 0
 1833 1008 40F20003 		movw	r3, #:lower16:GPS_ProcesState
 1834 100c C0F20003 		movt	r3, #:upper16:GPS_ProcesState
 1835 1010 4FF00102 		mov	r2, #1
 1836 1014 1A70     		strb	r2, [r3, #0]
 524:../src/gps.c  **** 							GPS_Digits_Count = 0;
 1837              		.loc 1 524 0
 1838 1016 40F20003 		movw	r3, #:lower16:GPS_Digits_Count
 1839 101a C0F20003 		movt	r3, #:upper16:GPS_Digits_Count
 1840 101e 4FF00002 		mov	r2, #0
 1841 1022 1A70     		strb	r2, [r3, #0]
 525:../src/gps.c  **** 							break;
 1842              		.loc 1 525 0
 1843 1024 FFE2     		b	.L68
 1844              	.L71:
 526:../src/gps.c  **** 						}
 527:../src/gps.c  **** 						case GPS_NEXTDATA_LATITUDE:
 528:../src/gps.c  **** 						{
 529:../src/gps.c  **** 							// Store received latitude
 530:../src/gps.c  **** 							// Latitude =0 - 90 = 0 - 5.400 minutes
 531:../src/gps.c  **** 							GPS_LATITUDE_T = ((GPS_Digits[0] - 48) * 10) + (GPS_Digits[1] - 48);
 1845              		.loc 1 531 0
 1846 1026 40F20003 		movw	r3, #:lower16:GPS_Digits
 1847 102a C0F20003 		movt	r3, #:upper16:GPS_Digits
 1848 102e 1B78     		ldrb	r3, [r3, #0]	@ zero_extendqisi2
 1849 1030 1A46     		mov	r2, r3	@ movhi
 1850 1032 4FEA8202 		lsl	r2, r2, #2
 1851 1036 D318     		adds	r3, r2, r3
 1852 1038 4FEA4303 		lsl	r3, r3, #1
 1853 103c 9AB2     		uxth	r2, r3
 1854 103e 40F20003 		movw	r3, #:lower16:GPS_Digits
 1855 1042 C0F20003 		movt	r3, #:upper16:GPS_Digits
 1856 1046 5B78     		ldrb	r3, [r3, #1]	@ zero_extendqisi2
 1857 1048 D318     		adds	r3, r2, r3
 1858 104a 9BB2     		uxth	r3, r3
 1859 104c A3F50473 		sub	r3, r3, #528
 1860 1050 9AB2     		uxth	r2, r3
 1861 1052 40F20003 		movw	r3, #:lower16:GPS_RECDATA
 1862 1056 C0F20003 		movt	r3, #:upper16:GPS_RECDATA
 1863 105a 1A80     		strh	r2, [r3, #0]	@ movhi
 532:../src/gps.c  **** 							GPS_LATITUDE_T = GPS_LATITUDE_T * 60;
 1864              		.loc 1 532 0
 1865 105c 40F20003 		movw	r3, #:lower16:GPS_RECDATA
 1866 1060 C0F20003 		movt	r3, #:upper16:GPS_RECDATA
 1867 1064 1B88     		ldrh	r3, [r3, #0]
 1868 1066 1A46     		mov	r2, r3	@ movhi
 1869 1068 4FEA0212 		lsl	r2, r2, #4
 1870 106c D31A     		subs	r3, r2, r3
 1871 106e 4FEA8303 		lsl	r3, r3, #2
 1872 1072 9AB2     		uxth	r2, r3
 1873 1074 40F20003 		movw	r3, #:lower16:GPS_RECDATA
 1874 1078 C0F20003 		movt	r3, #:upper16:GPS_RECDATA
 1875 107c 1A80     		strh	r2, [r3, #0]	@ movhi
 533:../src/gps.c  **** 							GPS_LATITUDE_T = GPS_LATITUDE_T + (((GPS_Digits[2] - 48) * 10) + (GPS_Digits[3] - 48));
 1876              		.loc 1 533 0
 1877 107e 40F20003 		movw	r3, #:lower16:GPS_RECDATA
 1878 1082 C0F20003 		movt	r3, #:upper16:GPS_RECDATA
 1879 1086 1A88     		ldrh	r2, [r3, #0]
 1880 1088 40F20003 		movw	r3, #:lower16:GPS_Digits
 1881 108c C0F20003 		movt	r3, #:upper16:GPS_Digits
 1882 1090 9B78     		ldrb	r3, [r3, #2]	@ zero_extendqisi2
 1883 1092 1946     		mov	r1, r3	@ movhi
 1884 1094 4FEA8101 		lsl	r1, r1, #2
 1885 1098 CB18     		adds	r3, r1, r3
 1886 109a 4FEA4303 		lsl	r3, r3, #1
 1887 109e 99B2     		uxth	r1, r3
 1888 10a0 40F20003 		movw	r3, #:lower16:GPS_Digits
 1889 10a4 C0F20003 		movt	r3, #:upper16:GPS_Digits
 1890 10a8 DB78     		ldrb	r3, [r3, #3]	@ zero_extendqisi2
 1891 10aa CB18     		adds	r3, r1, r3
 1892 10ac 9BB2     		uxth	r3, r3
 1893 10ae D318     		adds	r3, r2, r3
 1894 10b0 9BB2     		uxth	r3, r3
 1895 10b2 A3F50473 		sub	r3, r3, #528
 1896 10b6 9AB2     		uxth	r2, r3
 1897 10b8 40F20003 		movw	r3, #:lower16:GPS_RECDATA
 1898 10bc C0F20003 		movt	r3, #:upper16:GPS_RECDATA
 1899 10c0 1A80     		strh	r2, [r3, #0]	@ movhi
 534:../src/gps.c  **** 							GPS_LATITUDE_FRAC_T = GPS_DataTemp;
 1900              		.loc 1 534 0
 1901 10c2 40F20003 		movw	r3, #:lower16:GPS_DataTemp
 1902 10c6 C0F20003 		movt	r3, #:upper16:GPS_DataTemp
 1903 10ca 1A88     		ldrh	r2, [r3, #0]
 1904 10cc 40F20003 		movw	r3, #:lower16:GPS_RECDATA
 1905 10d0 C0F20003 		movt	r3, #:upper16:GPS_RECDATA
 1906 10d4 5A80     		strh	r2, [r3, #2]	@ movhi
 535:../src/gps.c  **** 							// Go to next data
 536:../src/gps.c  **** 							GPS_NextData = GPS_NEXTDATA_NS;
 1907              		.loc 1 536 0
 1908 10d6 40F20003 		movw	r3, #:lower16:GPS_NextData
 1909 10da C0F20003 		movt	r3, #:upper16:GPS_NextData
 1910 10de 4FF00402 		mov	r2, #4
 1911 10e2 1A70     		strb	r2, [r3, #0]
 537:../src/gps.c  **** 							GPS_ProcesState = GPS_RECEIVE_NUMBER;
 1912              		.loc 1 537 0
 1913 10e4 40F20003 		movw	r3, #:lower16:GPS_ProcesState
 1914 10e8 C0F20003 		movt	r3, #:upper16:GPS_ProcesState
 1915 10ec 4FF00102 		mov	r2, #1
 1916 10f0 1A70     		strb	r2, [r3, #0]
 538:../src/gps.c  **** 							GPS_Digits_Count = 0;
 1917              		.loc 1 538 0
 1918 10f2 40F20003 		movw	r3, #:lower16:GPS_Digits_Count
 1919 10f6 C0F20003 		movt	r3, #:upper16:GPS_Digits_Count
 1920 10fa 4FF00002 		mov	r2, #0
 1921 10fe 1A70     		strb	r2, [r3, #0]
 539:../src/gps.c  **** 							break;
 1922              		.loc 1 539 0
 1923 1100 91E2     		b	.L68
 1924              	.L72:
 540:../src/gps.c  **** 						}
 541:../src/gps.c  **** 						case GPS_NEXTDATA_LONGITUDE:
 542:../src/gps.c  **** 						{
 543:../src/gps.c  **** 							// Store received longitude
 544:../src/gps.c  **** 							// Latitude =0 - 180 = 0 - 10.800 minutes
 545:../src/gps.c  **** 							GPS_LONGITUDE_T = ((GPS_Digits[0] - 48) * 100) + ((GPS_Digits[1] - 48) * 10) + (GPS_Digits[2
 1925              		.loc 1 545 0
 1926 1102 40F20003 		movw	r3, #:lower16:GPS_Digits
 1927 1106 C0F20003 		movt	r3, #:upper16:GPS_Digits
 1928 110a 1B78     		ldrb	r3, [r3, #0]	@ zero_extendqisi2
 1929 110c 1A46     		mov	r2, r3	@ movhi
 1930 110e 4FEA8202 		lsl	r2, r2, #2
 1931 1112 D318     		adds	r3, r2, r3
 1932 1114 1A46     		mov	r2, r3	@ movhi
 1933 1116 4FEA8201 		lsl	r1, r2, #2
 1934 111a 1A46     		mov	r2, r3	@ movhi
 1935 111c 0B46     		mov	r3, r1	@ movhi
 1936 111e D318     		adds	r3, r2, r3
 1937 1120 4FEA8303 		lsl	r3, r3, #2
 1938 1124 9AB2     		uxth	r2, r3
 1939 1126 40F20003 		movw	r3, #:lower16:GPS_Digits
 1940 112a C0F20003 		movt	r3, #:upper16:GPS_Digits
 1941 112e 5B78     		ldrb	r3, [r3, #1]	@ zero_extendqisi2
 1942 1130 1946     		mov	r1, r3	@ movhi
 1943 1132 4FEA8101 		lsl	r1, r1, #2
 1944 1136 CB18     		adds	r3, r1, r3
 1945 1138 4FEA4303 		lsl	r3, r3, #1
 1946 113c 9BB2     		uxth	r3, r3
 1947 113e D318     		adds	r3, r2, r3
 1948 1140 9AB2     		uxth	r2, r3
 1949 1142 40F20003 		movw	r3, #:lower16:GPS_Digits
 1950 1146 C0F20003 		movt	r3, #:upper16:GPS_Digits
 1951 114a 9B78     		ldrb	r3, [r3, #2]	@ zero_extendqisi2
 1952 114c D318     		adds	r3, r2, r3
 1953 114e 9BB2     		uxth	r3, r3
 1954 1150 A3F5A653 		sub	r3, r3, #5312
 1955 1154 A3F11003 		sub	r3, r3, #16
 1956 1158 9AB2     		uxth	r2, r3
 1957 115a 40F20003 		movw	r3, #:lower16:GPS_RECDATA
 1958 115e C0F20003 		movt	r3, #:upper16:GPS_RECDATA
 1959 1162 9A80     		strh	r2, [r3, #4]	@ movhi
 546:../src/gps.c  **** 							GPS_LONGITUDE_T = GPS_LONGITUDE_T * 180;
 1960              		.loc 1 546 0
 1961 1164 40F20003 		movw	r3, #:lower16:GPS_RECDATA
 1962 1168 C0F20003 		movt	r3, #:upper16:GPS_RECDATA
 1963 116c 9B88     		ldrh	r3, [r3, #4]
 1964 116e 1A46     		mov	r2, r3	@ movhi
 1965 1170 4FEA4202 		lsl	r2, r2, #1
 1966 1174 D318     		adds	r3, r2, r3
 1967 1176 1A46     		mov	r2, r3	@ movhi
 1968 1178 4FEA0212 		lsl	r2, r2, #4
 1969 117c D31A     		subs	r3, r2, r3
 1970 117e 4FEA8303 		lsl	r3, r3, #2
 1971 1182 9AB2     		uxth	r2, r3
 1972 1184 40F20003 		movw	r3, #:lower16:GPS_RECDATA
 1973 1188 C0F20003 		movt	r3, #:upper16:GPS_RECDATA
 1974 118c 9A80     		strh	r2, [r3, #4]	@ movhi
 547:../src/gps.c  **** 							GPS_LONGITUDE_T = GPS_LONGITUDE_T + (((GPS_Digits[3] - 48) * 10) + (GPS_Digits[4] - 48));
 1975              		.loc 1 547 0
 1976 118e 40F20003 		movw	r3, #:lower16:GPS_RECDATA
 1977 1192 C0F20003 		movt	r3, #:upper16:GPS_RECDATA
 1978 1196 9A88     		ldrh	r2, [r3, #4]
 1979 1198 40F20003 		movw	r3, #:lower16:GPS_Digits
 1980 119c C0F20003 		movt	r3, #:upper16:GPS_Digits
 1981 11a0 DB78     		ldrb	r3, [r3, #3]	@ zero_extendqisi2
 1982 11a2 1946     		mov	r1, r3	@ movhi
 1983 11a4 4FEA8101 		lsl	r1, r1, #2
 1984 11a8 CB18     		adds	r3, r1, r3
 1985 11aa 4FEA4303 		lsl	r3, r3, #1
 1986 11ae 99B2     		uxth	r1, r3
 1987 11b0 40F20003 		movw	r3, #:lower16:GPS_Digits
 1988 11b4 C0F20003 		movt	r3, #:upper16:GPS_Digits
 1989 11b8 1B79     		ldrb	r3, [r3, #4]	@ zero_extendqisi2
 1990 11ba CB18     		adds	r3, r1, r3
 1991 11bc 9BB2     		uxth	r3, r3
 1992 11be D318     		adds	r3, r2, r3
 1993 11c0 9BB2     		uxth	r3, r3
 1994 11c2 A3F50473 		sub	r3, r3, #528
 1995 11c6 9AB2     		uxth	r2, r3
 1996 11c8 40F20003 		movw	r3, #:lower16:GPS_RECDATA
 1997 11cc C0F20003 		movt	r3, #:upper16:GPS_RECDATA
 1998 11d0 9A80     		strh	r2, [r3, #4]	@ movhi
 548:../src/gps.c  **** 							GPS_LONGITUDE_FRAC_T = GPS_DataTemp;
 1999              		.loc 1 548 0
 2000 11d2 40F20003 		movw	r3, #:lower16:GPS_DataTemp
 2001 11d6 C0F20003 		movt	r3, #:upper16:GPS_DataTemp
 2002 11da 1A88     		ldrh	r2, [r3, #0]
 2003 11dc 40F20003 		movw	r3, #:lower16:GPS_RECDATA
 2004 11e0 C0F20003 		movt	r3, #:upper16:GPS_RECDATA
 2005 11e4 DA80     		strh	r2, [r3, #6]	@ movhi
 549:../src/gps.c  **** 							// Go to next data
 550:../src/gps.c  **** 							GPS_NextData = GPS_NEXTDATA_EW;
 2006              		.loc 1 550 0
 2007 11e6 40F20003 		movw	r3, #:lower16:GPS_NextData
 2008 11ea C0F20003 		movt	r3, #:upper16:GPS_NextData
 2009 11ee 4FF00502 		mov	r2, #5
 2010 11f2 1A70     		strb	r2, [r3, #0]
 551:../src/gps.c  **** 							GPS_ProcesState = GPS_RECEIVE_NUMBER;
 2011              		.loc 1 551 0
 2012 11f4 40F20003 		movw	r3, #:lower16:GPS_ProcesState
 2013 11f8 C0F20003 		movt	r3, #:upper16:GPS_ProcesState
 2014 11fc 4FF00102 		mov	r2, #1
 2015 1200 1A70     		strb	r2, [r3, #0]
 552:../src/gps.c  **** 							GPS_Digits_Count = 0;
 2016              		.loc 1 552 0
 2017 1202 40F20003 		movw	r3, #:lower16:GPS_Digits_Count
 2018 1206 C0F20003 		movt	r3, #:upper16:GPS_Digits_Count
 2019 120a 4FF00002 		mov	r2, #0
 2020 120e 1A70     		strb	r2, [r3, #0]
 553:../src/gps.c  **** 							break;
 2021              		.loc 1 553 0
 2022 1210 09E2     		b	.L68
 2023              	.L76:
 554:../src/gps.c  **** 						}
 555:../src/gps.c  **** 						case GPS_NEXTDATA_SPEED:
 556:../src/gps.c  **** 						{
 557:../src/gps.c  **** 							temp = 1;
 2024              		.loc 1 557 0
 2025 1212 4FF00103 		mov	r3, #1
 2026 1216 FB81     		strh	r3, [r7, #14]	@ movhi
 558:../src/gps.c  **** 							GPS_SPEED_T = 0;
 2027              		.loc 1 558 0
 2028 1218 40F20003 		movw	r3, #:lower16:GPS_RECDATA
 2029 121c C0F20003 		movt	r3, #:upper16:GPS_RECDATA
 2030 1220 4FF00002 		mov	r2, #0
 2031 1224 9A81     		strh	r2, [r3, #12]	@ movhi
 2032              	.L81:
 559:../src/gps.c  **** 							do
 560:../src/gps.c  **** 							{
 561:../src/gps.c  **** 								GPS_Digits_Count--;
 2033              		.loc 1 561 0 discriminator 1
 2034 1226 40F20003 		movw	r3, #:lower16:GPS_Digits_Count
 2035 122a C0F20003 		movt	r3, #:upper16:GPS_Digits_Count
 2036 122e 1B78     		ldrb	r3, [r3, #0]	@ zero_extendqisi2
 2037 1230 03F1FF33 		add	r3, r3, #-1
 2038 1234 DAB2     		uxtb	r2, r3
 2039 1236 40F20003 		movw	r3, #:lower16:GPS_Digits_Count
 2040 123a C0F20003 		movt	r3, #:upper16:GPS_Digits_Count
 2041 123e 1A70     		strb	r2, [r3, #0]
 562:../src/gps.c  **** 								GPS_SPEED_T = GPS_SPEED_T + (GPS_Digits[GPS_Digits_Count] - 48) * temp;
 2042              		.loc 1 562 0 discriminator 1
 2043 1240 40F20003 		movw	r3, #:lower16:GPS_RECDATA
 2044 1244 C0F20003 		movt	r3, #:upper16:GPS_RECDATA
 2045 1248 9A89     		ldrh	r2, [r3, #12]
 2046 124a 40F20003 		movw	r3, #:lower16:GPS_Digits_Count
 2047 124e C0F20003 		movt	r3, #:upper16:GPS_Digits_Count
 2048 1252 1B78     		ldrb	r3, [r3, #0]	@ zero_extendqisi2
 2049 1254 1946     		mov	r1, r3
 2050 1256 40F20003 		movw	r3, #:lower16:GPS_Digits
 2051 125a C0F20003 		movt	r3, #:upper16:GPS_Digits
 2052 125e 5B5C     		ldrb	r3, [r3, r1]	@ zero_extendqisi2
 2053 1260 A3F13003 		sub	r3, r3, #48
 2054 1264 9BB2     		uxth	r3, r3
 2055 1266 F989     		ldrh	r1, [r7, #14]	@ movhi
 2056 1268 01FB03F3 		mul	r3, r1, r3
 2057 126c 9BB2     		uxth	r3, r3
 2058 126e D318     		adds	r3, r2, r3
 2059 1270 9AB2     		uxth	r2, r3
 2060 1272 40F20003 		movw	r3, #:lower16:GPS_RECDATA
 2061 1276 C0F20003 		movt	r3, #:upper16:GPS_RECDATA
 2062 127a 9A81     		strh	r2, [r3, #12]	@ movhi
 563:../src/gps.c  **** 								temp = temp * 10;
 2063              		.loc 1 563 0 discriminator 1
 2064 127c FB89     		ldrh	r3, [r7, #14]	@ movhi
 2065 127e 1A46     		mov	r2, r3	@ movhi
 2066 1280 4FEA8202 		lsl	r2, r2, #2
 2067 1284 D318     		adds	r3, r2, r3
 2068 1286 4FEA4303 		lsl	r3, r3, #1
 2069 128a FB81     		strh	r3, [r7, #14]	@ movhi
 564:../src/gps.c  **** 							}
 565:../src/gps.c  **** 							while(GPS_Digits_Count > 0);
 2070              		.loc 1 565 0 discriminator 1
 2071 128c 40F20003 		movw	r3, #:lower16:GPS_Digits_Count
 2072 1290 C0F20003 		movt	r3, #:upper16:GPS_Digits_Count
 2073 1294 1B78     		ldrb	r3, [r3, #0]	@ zero_extendqisi2
 2074 1296 002B     		cmp	r3, #0
 2075 1298 C5D1     		bne	.L81
 566:../src/gps.c  **** 							GPS_SPEED_FRAC_T = GPS_DataTemp;
 2076              		.loc 1 566 0
 2077 129a 40F20003 		movw	r3, #:lower16:GPS_DataTemp
 2078 129e C0F20003 		movt	r3, #:upper16:GPS_DataTemp
 2079 12a2 1A88     		ldrh	r2, [r3, #0]
 2080 12a4 40F20003 		movw	r3, #:lower16:GPS_RECDATA
 2081 12a8 C0F20003 		movt	r3, #:upper16:GPS_RECDATA
 2082 12ac DA81     		strh	r2, [r3, #14]	@ movhi
 567:../src/gps.c  **** 							// Go to next data
 568:../src/gps.c  **** 							GPS_NextData = GPS_NEXTDATA_HEADING;
 2083              		.loc 1 568 0
 2084 12ae 40F20003 		movw	r3, #:lower16:GPS_NextData
 2085 12b2 C0F20003 		movt	r3, #:upper16:GPS_NextData
 2086 12b6 4FF00F02 		mov	r2, #15
 2087 12ba 1A70     		strb	r2, [r3, #0]
 569:../src/gps.c  **** 							GPS_ProcesState = GPS_RECEIVE_NUMBER;
 2088              		.loc 1 569 0
 2089 12bc 40F20003 		movw	r3, #:lower16:GPS_ProcesState
 2090 12c0 C0F20003 		movt	r3, #:upper16:GPS_ProcesState
 2091 12c4 4FF00102 		mov	r2, #1
 2092 12c8 1A70     		strb	r2, [r3, #0]
 570:../src/gps.c  **** 							GPS_Digits_Count = 0;
 2093              		.loc 1 570 0
 2094 12ca 40F20003 		movw	r3, #:lower16:GPS_Digits_Count
 2095 12ce C0F20003 		movt	r3, #:upper16:GPS_Digits_Count
 2096 12d2 4FF00002 		mov	r2, #0
 2097 12d6 1A70     		strb	r2, [r3, #0]
 571:../src/gps.c  **** 							break;
 2098              		.loc 1 571 0
 2099 12d8 A5E1     		b	.L68
 2100              	.L77:
 572:../src/gps.c  **** 						}
 573:../src/gps.c  **** 						case GPS_NEXTDATA_HEADING:
 574:../src/gps.c  **** 						{
 575:../src/gps.c  **** 							temp = 1;
 2101              		.loc 1 575 0
 2102 12da 4FF00103 		mov	r3, #1
 2103 12de FB81     		strh	r3, [r7, #14]	@ movhi
 576:../src/gps.c  **** 							GPS_TRACKANGLE_T = 0;
 2104              		.loc 1 576 0
 2105 12e0 40F20003 		movw	r3, #:lower16:GPS_RECDATA
 2106 12e4 C0F20003 		movt	r3, #:upper16:GPS_RECDATA
 2107 12e8 4FF00002 		mov	r2, #0
 2108 12ec 1A82     		strh	r2, [r3, #16]	@ movhi
 2109              	.L82:
 577:../src/gps.c  **** 							do
 578:../src/gps.c  **** 							{
 579:../src/gps.c  **** 								GPS_Digits_Count--;
 2110              		.loc 1 579 0 discriminator 1
 2111 12ee 40F20003 		movw	r3, #:lower16:GPS_Digits_Count
 2112 12f2 C0F20003 		movt	r3, #:upper16:GPS_Digits_Count
 2113 12f6 1B78     		ldrb	r3, [r3, #0]	@ zero_extendqisi2
 2114 12f8 03F1FF33 		add	r3, r3, #-1
 2115 12fc DAB2     		uxtb	r2, r3
 2116 12fe 40F20003 		movw	r3, #:lower16:GPS_Digits_Count
 2117 1302 C0F20003 		movt	r3, #:upper16:GPS_Digits_Count
 2118 1306 1A70     		strb	r2, [r3, #0]
 580:../src/gps.c  **** 								GPS_TRACKANGLE_T = GPS_TRACKANGLE_T + (GPS_Digits[GPS_Digits_Count] - 48) * temp;
 2119              		.loc 1 580 0 discriminator 1
 2120 1308 40F20003 		movw	r3, #:lower16:GPS_RECDATA
 2121 130c C0F20003 		movt	r3, #:upper16:GPS_RECDATA
 2122 1310 1A8A     		ldrh	r2, [r3, #16]
 2123 1312 40F20003 		movw	r3, #:lower16:GPS_Digits_Count
 2124 1316 C0F20003 		movt	r3, #:upper16:GPS_Digits_Count
 2125 131a 1B78     		ldrb	r3, [r3, #0]	@ zero_extendqisi2
 2126 131c 1946     		mov	r1, r3
 2127 131e 40F20003 		movw	r3, #:lower16:GPS_Digits
 2128 1322 C0F20003 		movt	r3, #:upper16:GPS_Digits
 2129 1326 5B5C     		ldrb	r3, [r3, r1]	@ zero_extendqisi2
 2130 1328 A3F13003 		sub	r3, r3, #48
 2131 132c 9BB2     		uxth	r3, r3
 2132 132e F989     		ldrh	r1, [r7, #14]	@ movhi
 2133 1330 01FB03F3 		mul	r3, r1, r3
 2134 1334 9BB2     		uxth	r3, r3
 2135 1336 D318     		adds	r3, r2, r3
 2136 1338 9AB2     		uxth	r2, r3
 2137 133a 40F20003 		movw	r3, #:lower16:GPS_RECDATA
 2138 133e C0F20003 		movt	r3, #:upper16:GPS_RECDATA
 2139 1342 1A82     		strh	r2, [r3, #16]	@ movhi
 581:../src/gps.c  **** 								temp = temp * 10;
 2140              		.loc 1 581 0 discriminator 1
 2141 1344 FB89     		ldrh	r3, [r7, #14]	@ movhi
 2142 1346 1A46     		mov	r2, r3	@ movhi
 2143 1348 4FEA8202 		lsl	r2, r2, #2
 2144 134c D318     		adds	r3, r2, r3
 2145 134e 4FEA4303 		lsl	r3, r3, #1
 2146 1352 FB81     		strh	r3, [r7, #14]	@ movhi
 582:../src/gps.c  **** 							}
 583:../src/gps.c  **** 							while(GPS_Digits_Count > 0);
 2147              		.loc 1 583 0 discriminator 1
 2148 1354 40F20003 		movw	r3, #:lower16:GPS_Digits_Count
 2149 1358 C0F20003 		movt	r3, #:upper16:GPS_Digits_Count
 2150 135c 1B78     		ldrb	r3, [r3, #0]	@ zero_extendqisi2
 2151 135e 002B     		cmp	r3, #0
 2152 1360 C5D1     		bne	.L82
 584:../src/gps.c  **** 							GPS_TRACKANGLE_FRAC_T = GPS_DataTemp;
 2153              		.loc 1 584 0
 2154 1362 40F20003 		movw	r3, #:lower16:GPS_DataTemp
 2155 1366 C0F20003 		movt	r3, #:upper16:GPS_DataTemp
 2156 136a 1A88     		ldrh	r2, [r3, #0]
 2157 136c 40F20003 		movw	r3, #:lower16:GPS_RECDATA
 2158 1370 C0F20003 		movt	r3, #:upper16:GPS_RECDATA
 2159 1374 5A82     		strh	r2, [r3, #18]	@ movhi
 585:../src/gps.c  **** 							// Go to next data
 586:../src/gps.c  **** 							GPS_NextData = GPS_NEXTDATA_DATE;
 2160              		.loc 1 586 0
 2161 1376 40F20003 		movw	r3, #:lower16:GPS_NextData
 2162 137a C0F20003 		movt	r3, #:upper16:GPS_NextData
 2163 137e 4FF00102 		mov	r2, #1
 2164 1382 1A70     		strb	r2, [r3, #0]
 587:../src/gps.c  **** 							GPS_ProcesState = GPS_RECEIVE_NUMBER;
 2165              		.loc 1 587 0
 2166 1384 40F20003 		movw	r3, #:lower16:GPS_ProcesState
 2167 1388 C0F20003 		movt	r3, #:upper16:GPS_ProcesState
 2168 138c 4FF00102 		mov	r2, #1
 2169 1390 1A70     		strb	r2, [r3, #0]
 588:../src/gps.c  **** 							GPS_Digits_Count = 0;
 2170              		.loc 1 588 0
 2171 1392 40F20003 		movw	r3, #:lower16:GPS_Digits_Count
 2172 1396 C0F20003 		movt	r3, #:upper16:GPS_Digits_Count
 2173 139a 4FF00002 		mov	r2, #0
 2174 139e 1A70     		strb	r2, [r3, #0]
 589:../src/gps.c  **** 							break;
 2175              		.loc 1 589 0
 2176 13a0 41E1     		b	.L68
 2177              	.L73:
 590:../src/gps.c  **** 						}
 591:../src/gps.c  **** 						case GPS_NEXTDATA_HDOP:
 592:../src/gps.c  **** 						{
 593:../src/gps.c  **** 							temp = 1;
 2178              		.loc 1 593 0
 2179 13a2 4FF00103 		mov	r3, #1
 2180 13a6 FB81     		strh	r3, [r7, #14]	@ movhi
 594:../src/gps.c  **** 							GPS_HDOP_T = 0;
 2181              		.loc 1 594 0
 2182 13a8 40F20003 		movw	r3, #:lower16:GPS_RECDATA
 2183 13ac C0F20003 		movt	r3, #:upper16:GPS_RECDATA
 2184 13b0 4FF00002 		mov	r2, #0
 2185 13b4 1A85     		strh	r2, [r3, #40]	@ movhi
 2186              	.L83:
 595:../src/gps.c  **** 							do
 596:../src/gps.c  **** 							{
 597:../src/gps.c  **** 								GPS_Digits_Count--;
 2187              		.loc 1 597 0 discriminator 1
 2188 13b6 40F20003 		movw	r3, #:lower16:GPS_Digits_Count
 2189 13ba C0F20003 		movt	r3, #:upper16:GPS_Digits_Count
 2190 13be 1B78     		ldrb	r3, [r3, #0]	@ zero_extendqisi2
 2191 13c0 03F1FF33 		add	r3, r3, #-1
 2192 13c4 DAB2     		uxtb	r2, r3
 2193 13c6 40F20003 		movw	r3, #:lower16:GPS_Digits_Count
 2194 13ca C0F20003 		movt	r3, #:upper16:GPS_Digits_Count
 2195 13ce 1A70     		strb	r2, [r3, #0]
 598:../src/gps.c  **** 								GPS_HDOP_T = GPS_HDOP_T + (GPS_Digits[GPS_Digits_Count] - 48) * temp;
 2196              		.loc 1 598 0 discriminator 1
 2197 13d0 40F20003 		movw	r3, #:lower16:GPS_RECDATA
 2198 13d4 C0F20003 		movt	r3, #:upper16:GPS_RECDATA
 2199 13d8 1A8D     		ldrh	r2, [r3, #40]
 2200 13da 40F20003 		movw	r3, #:lower16:GPS_Digits_Count
 2201 13de C0F20003 		movt	r3, #:upper16:GPS_Digits_Count
 2202 13e2 1B78     		ldrb	r3, [r3, #0]	@ zero_extendqisi2
 2203 13e4 1946     		mov	r1, r3
 2204 13e6 40F20003 		movw	r3, #:lower16:GPS_Digits
 2205 13ea C0F20003 		movt	r3, #:upper16:GPS_Digits
 2206 13ee 5B5C     		ldrb	r3, [r3, r1]	@ zero_extendqisi2
 2207 13f0 A3F13003 		sub	r3, r3, #48
 2208 13f4 9BB2     		uxth	r3, r3
 2209 13f6 F989     		ldrh	r1, [r7, #14]	@ movhi
 2210 13f8 01FB03F3 		mul	r3, r1, r3
 2211 13fc 9BB2     		uxth	r3, r3
 2212 13fe D318     		adds	r3, r2, r3
 2213 1400 9AB2     		uxth	r2, r3
 2214 1402 40F20003 		movw	r3, #:lower16:GPS_RECDATA
 2215 1406 C0F20003 		movt	r3, #:upper16:GPS_RECDATA
 2216 140a 1A85     		strh	r2, [r3, #40]	@ movhi
 599:../src/gps.c  **** 								temp = temp * 10;
 2217              		.loc 1 599 0 discriminator 1
 2218 140c FB89     		ldrh	r3, [r7, #14]	@ movhi
 2219 140e 1A46     		mov	r2, r3	@ movhi
 2220 1410 4FEA8202 		lsl	r2, r2, #2
 2221 1414 D318     		adds	r3, r2, r3
 2222 1416 4FEA4303 		lsl	r3, r3, #1
 2223 141a FB81     		strh	r3, [r7, #14]	@ movhi
 600:../src/gps.c  **** 							}
 601:../src/gps.c  **** 							while(GPS_Digits_Count > 0);
 2224              		.loc 1 601 0 discriminator 1
 2225 141c 40F20003 		movw	r3, #:lower16:GPS_Digits_Count
 2226 1420 C0F20003 		movt	r3, #:upper16:GPS_Digits_Count
 2227 1424 1B78     		ldrb	r3, [r3, #0]	@ zero_extendqisi2
 2228 1426 002B     		cmp	r3, #0
 2229 1428 C5D1     		bne	.L83
 602:../src/gps.c  **** 							// Limit GPS_DataTemp to 1 decimal place
 603:../src/gps.c  **** 							GPS_HDOP_FRAC_T = GPS_DataTemp;
 2230              		.loc 1 603 0
 2231 142a 40F20003 		movw	r3, #:lower16:GPS_DataTemp
 2232 142e C0F20003 		movt	r3, #:upper16:GPS_DataTemp
 2233 1432 1A88     		ldrh	r2, [r3, #0]
 2234 1434 40F20003 		movw	r3, #:lower16:GPS_RECDATA
 2235 1438 C0F20003 		movt	r3, #:upper16:GPS_RECDATA
 2236 143c 5A85     		strh	r2, [r3, #42]	@ movhi
 604:../src/gps.c  **** 							// Go to next data
 605:../src/gps.c  **** 							GPS_NextData = GPS_NEXTDATA_ALTITUDE;
 2237              		.loc 1 605 0
 2238 143e 40F20003 		movw	r3, #:lower16:GPS_NextData
 2239 1442 C0F20003 		movt	r3, #:upper16:GPS_NextData
 2240 1446 4FF00902 		mov	r2, #9
 2241 144a 1A70     		strb	r2, [r3, #0]
 606:../src/gps.c  **** 							GPS_ProcesState = GPS_RECEIVE_NUMBER;
 2242              		.loc 1 606 0
 2243 144c 40F20003 		movw	r3, #:lower16:GPS_ProcesState
 2244 1450 C0F20003 		movt	r3, #:upper16:GPS_ProcesState
 2245 1454 4FF00102 		mov	r2, #1
 2246 1458 1A70     		strb	r2, [r3, #0]
 607:../src/gps.c  **** 							GPS_Digits_Count = 0;
 2247              		.loc 1 607 0
 2248 145a 40F20003 		movw	r3, #:lower16:GPS_Digits_Count
 2249 145e C0F20003 		movt	r3, #:upper16:GPS_Digits_Count
 2250 1462 4FF00002 		mov	r2, #0
 2251 1466 1A70     		strb	r2, [r3, #0]
 608:../src/gps.c  **** 							break;
 2252              		.loc 1 608 0
 2253 1468 DDE0     		b	.L68
 2254              	.L74:
 609:../src/gps.c  **** 						}
 610:../src/gps.c  **** 						case GPS_NEXTDATA_ALTITUDE:
 611:../src/gps.c  **** 						{
 612:../src/gps.c  **** 							temp = 1;
 2255              		.loc 1 612 0
 2256 146a 4FF00103 		mov	r3, #1
 2257 146e FB81     		strh	r3, [r7, #14]	@ movhi
 613:../src/gps.c  **** 							GPS_ALTITUDE_T = 0;
 2258              		.loc 1 613 0
 2259 1470 40F20003 		movw	r3, #:lower16:GPS_RECDATA
 2260 1474 C0F20003 		movt	r3, #:upper16:GPS_RECDATA
 2261 1478 4FF00002 		mov	r2, #0
 2262 147c 1A81     		strh	r2, [r3, #8]	@ movhi
 2263              	.L84:
 614:../src/gps.c  **** 							do
 615:../src/gps.c  **** 							{
 616:../src/gps.c  **** 								GPS_Digits_Count--;
 2264              		.loc 1 616 0 discriminator 1
 2265 147e 40F20003 		movw	r3, #:lower16:GPS_Digits_Count
 2266 1482 C0F20003 		movt	r3, #:upper16:GPS_Digits_Count
 2267 1486 1B78     		ldrb	r3, [r3, #0]	@ zero_extendqisi2
 2268 1488 03F1FF33 		add	r3, r3, #-1
 2269 148c DAB2     		uxtb	r2, r3
 2270 148e 40F20003 		movw	r3, #:lower16:GPS_Digits_Count
 2271 1492 C0F20003 		movt	r3, #:upper16:GPS_Digits_Count
 2272 1496 1A70     		strb	r2, [r3, #0]
 617:../src/gps.c  **** 								GPS_ALTITUDE_T = GPS_ALTITUDE_T + (GPS_Digits[GPS_Digits_Count] - 48) * temp;
 2273              		.loc 1 617 0 discriminator 1
 2274 1498 40F20003 		movw	r3, #:lower16:GPS_RECDATA
 2275 149c C0F20003 		movt	r3, #:upper16:GPS_RECDATA
 2276 14a0 1A89     		ldrh	r2, [r3, #8]
 2277 14a2 40F20003 		movw	r3, #:lower16:GPS_Digits_Count
 2278 14a6 C0F20003 		movt	r3, #:upper16:GPS_Digits_Count
 2279 14aa 1B78     		ldrb	r3, [r3, #0]	@ zero_extendqisi2
 2280 14ac 1946     		mov	r1, r3
 2281 14ae 40F20003 		movw	r3, #:lower16:GPS_Digits
 2282 14b2 C0F20003 		movt	r3, #:upper16:GPS_Digits
 2283 14b6 5B5C     		ldrb	r3, [r3, r1]	@ zero_extendqisi2
 2284 14b8 A3F13003 		sub	r3, r3, #48
 2285 14bc 9BB2     		uxth	r3, r3
 2286 14be F989     		ldrh	r1, [r7, #14]	@ movhi
 2287 14c0 01FB03F3 		mul	r3, r1, r3
 2288 14c4 9BB2     		uxth	r3, r3
 2289 14c6 D318     		adds	r3, r2, r3
 2290 14c8 9AB2     		uxth	r2, r3
 2291 14ca 40F20003 		movw	r3, #:lower16:GPS_RECDATA
 2292 14ce C0F20003 		movt	r3, #:upper16:GPS_RECDATA
 2293 14d2 1A81     		strh	r2, [r3, #8]	@ movhi
 618:../src/gps.c  **** 								temp = temp * 10;
 2294              		.loc 1 618 0 discriminator 1
 2295 14d4 FB89     		ldrh	r3, [r7, #14]	@ movhi
 2296 14d6 1A46     		mov	r2, r3	@ movhi
 2297 14d8 4FEA8202 		lsl	r2, r2, #2
 2298 14dc D318     		adds	r3, r2, r3
 2299 14de 4FEA4303 		lsl	r3, r3, #1
 2300 14e2 FB81     		strh	r3, [r7, #14]	@ movhi
 619:../src/gps.c  **** 							}
 620:../src/gps.c  **** 							while(GPS_Digits_Count > 0);
 2301              		.loc 1 620 0 discriminator 1
 2302 14e4 40F20003 		movw	r3, #:lower16:GPS_Digits_Count
 2303 14e8 C0F20003 		movt	r3, #:upper16:GPS_Digits_Count
 2304 14ec 1B78     		ldrb	r3, [r3, #0]	@ zero_extendqisi2
 2305 14ee 002B     		cmp	r3, #0
 2306 14f0 C5D1     		bne	.L84
 621:../src/gps.c  **** 							GPS_ALTITUDE_FRAC_T = GPS_DataTemp;
 2307              		.loc 1 621 0
 2308 14f2 40F20003 		movw	r3, #:lower16:GPS_DataTemp
 2309 14f6 C0F20003 		movt	r3, #:upper16:GPS_DataTemp
 2310 14fa 1A88     		ldrh	r2, [r3, #0]
 2311 14fc 40F20003 		movw	r3, #:lower16:GPS_RECDATA
 2312 1500 C0F20003 		movt	r3, #:upper16:GPS_RECDATA
 2313 1504 5A81     		strh	r2, [r3, #10]	@ movhi
 622:../src/gps.c  **** 							// Go to next data
 623:../src/gps.c  **** 							GPS_NextData = GPS_NEXTDATA_M1;
 2314              		.loc 1 623 0
 2315 1506 40F20003 		movw	r3, #:lower16:GPS_NextData
 2316 150a C0F20003 		movt	r3, #:upper16:GPS_NextData
 2317 150e 4FF00A02 		mov	r2, #10
 2318 1512 1A70     		strb	r2, [r3, #0]
 624:../src/gps.c  **** 							GPS_ProcesState = GPS_RECEIVE_NUMBER;
 2319              		.loc 1 624 0
 2320 1514 40F20003 		movw	r3, #:lower16:GPS_ProcesState
 2321 1518 C0F20003 		movt	r3, #:upper16:GPS_ProcesState
 2322 151c 4FF00102 		mov	r2, #1
 2323 1520 1A70     		strb	r2, [r3, #0]
 625:../src/gps.c  **** 							GPS_Digits_Count = 0;
 2324              		.loc 1 625 0
 2325 1522 40F20003 		movw	r3, #:lower16:GPS_Digits_Count
 2326 1526 C0F20003 		movt	r3, #:upper16:GPS_Digits_Count
 2327 152a 4FF00002 		mov	r2, #0
 2328 152e 1A70     		strb	r2, [r3, #0]
 626:../src/gps.c  **** 							break;
 2329              		.loc 1 626 0
 2330 1530 79E0     		b	.L68
 2331              	.L75:
 627:../src/gps.c  **** 						}
 628:../src/gps.c  **** 						case GPS_NEXTDATA_GG:
 629:../src/gps.c  **** 						{
 630:../src/gps.c  **** 							temp = 1;
 2332              		.loc 1 630 0
 2333 1532 4FF00103 		mov	r3, #1
 2334 1536 FB81     		strh	r3, [r7, #14]	@ movhi
 631:../src/gps.c  **** 							GPS_GG_T = 0;
 2335              		.loc 1 631 0
 2336 1538 40F20003 		movw	r3, #:lower16:GPS_RECDATA
 2337 153c C0F20003 		movt	r3, #:upper16:GPS_RECDATA
 2338 1540 4FF00002 		mov	r2, #0
 2339 1544 9A85     		strh	r2, [r3, #44]	@ movhi
 2340              	.L85:
 632:../src/gps.c  **** 							do
 633:../src/gps.c  **** 							{
 634:../src/gps.c  **** 								GPS_Digits_Count--;
 2341              		.loc 1 634 0 discriminator 1
 2342 1546 40F20003 		movw	r3, #:lower16:GPS_Digits_Count
 2343 154a C0F20003 		movt	r3, #:upper16:GPS_Digits_Count
 2344 154e 1B78     		ldrb	r3, [r3, #0]	@ zero_extendqisi2
 2345 1550 03F1FF33 		add	r3, r3, #-1
 2346 1554 DAB2     		uxtb	r2, r3
 2347 1556 40F20003 		movw	r3, #:lower16:GPS_Digits_Count
 2348 155a C0F20003 		movt	r3, #:upper16:GPS_Digits_Count
 2349 155e 1A70     		strb	r2, [r3, #0]
 635:../src/gps.c  **** 								GPS_GG_T = GPS_GG_T + (GPS_Digits[GPS_Digits_Count] - 48) * temp;
 2350              		.loc 1 635 0 discriminator 1
 2351 1560 40F20003 		movw	r3, #:lower16:GPS_RECDATA
 2352 1564 C0F20003 		movt	r3, #:upper16:GPS_RECDATA
 2353 1568 9A8D     		ldrh	r2, [r3, #44]
 2354 156a 40F20003 		movw	r3, #:lower16:GPS_Digits_Count
 2355 156e C0F20003 		movt	r3, #:upper16:GPS_Digits_Count
 2356 1572 1B78     		ldrb	r3, [r3, #0]	@ zero_extendqisi2
 2357 1574 1946     		mov	r1, r3
 2358 1576 40F20003 		movw	r3, #:lower16:GPS_Digits
 2359 157a C0F20003 		movt	r3, #:upper16:GPS_Digits
 2360 157e 5B5C     		ldrb	r3, [r3, r1]	@ zero_extendqisi2
 2361 1580 A3F13003 		sub	r3, r3, #48
 2362 1584 9BB2     		uxth	r3, r3
 2363 1586 F989     		ldrh	r1, [r7, #14]	@ movhi
 2364 1588 01FB03F3 		mul	r3, r1, r3
 2365 158c 9BB2     		uxth	r3, r3
 2366 158e D318     		adds	r3, r2, r3
 2367 1590 9AB2     		uxth	r2, r3
 2368 1592 40F20003 		movw	r3, #:lower16:GPS_RECDATA
 2369 1596 C0F20003 		movt	r3, #:upper16:GPS_RECDATA
 2370 159a 9A85     		strh	r2, [r3, #44]	@ movhi
 636:../src/gps.c  **** 								temp = temp * 10;
 2371              		.loc 1 636 0 discriminator 1
 2372 159c FB89     		ldrh	r3, [r7, #14]	@ movhi
 2373 159e 1A46     		mov	r2, r3	@ movhi
 2374 15a0 4FEA8202 		lsl	r2, r2, #2
 2375 15a4 D318     		adds	r3, r2, r3
 2376 15a6 4FEA4303 		lsl	r3, r3, #1
 2377 15aa FB81     		strh	r3, [r7, #14]	@ movhi
 637:../src/gps.c  **** 							}
 638:../src/gps.c  **** 							while(GPS_Digits_Count > 0);
 2378              		.loc 1 638 0 discriminator 1
 2379 15ac 40F20003 		movw	r3, #:lower16:GPS_Digits_Count
 2380 15b0 C0F20003 		movt	r3, #:upper16:GPS_Digits_Count
 2381 15b4 1B78     		ldrb	r3, [r3, #0]	@ zero_extendqisi2
 2382 15b6 002B     		cmp	r3, #0
 2383 15b8 C5D1     		bne	.L85
 639:../src/gps.c  **** 							GPS_GG_FRAC_T = GPS_DataTemp;
 2384              		.loc 1 639 0
 2385 15ba 40F20003 		movw	r3, #:lower16:GPS_DataTemp
 2386 15be C0F20003 		movt	r3, #:upper16:GPS_DataTemp
 2387 15c2 1A88     		ldrh	r2, [r3, #0]
 2388 15c4 40F20003 		movw	r3, #:lower16:GPS_RECDATA
 2389 15c8 C0F20003 		movt	r3, #:upper16:GPS_RECDATA
 2390 15cc DA85     		strh	r2, [r3, #46]	@ movhi
 640:../src/gps.c  **** 							// Go to next data
 641:../src/gps.c  **** 							GPS_NextData = GPS_NEXTDATA_VOID;
 2391              		.loc 1 641 0
 2392 15ce 40F20003 		movw	r3, #:lower16:GPS_NextData
 2393 15d2 C0F20003 		movt	r3, #:upper16:GPS_NextData
 2394 15d6 4FF01502 		mov	r2, #21
 2395 15da 1A70     		strb	r2, [r3, #0]
 642:../src/gps.c  **** 							GPS_ProcesState = GPS_WAITFOREND;
 2396              		.loc 1 642 0
 2397 15dc 40F20003 		movw	r3, #:lower16:GPS_ProcesState
 2398 15e0 C0F20003 		movt	r3, #:upper16:GPS_ProcesState
 2399 15e4 4FF00302 		mov	r2, #3
 2400 15e8 1A70     		strb	r2, [r3, #0]
 643:../src/gps.c  **** 							GPS_Digits_Count = 0;
 2401              		.loc 1 643 0
 2402 15ea 40F20003 		movw	r3, #:lower16:GPS_Digits_Count
 2403 15ee C0F20003 		movt	r3, #:upper16:GPS_Digits_Count
 2404 15f2 4FF00002 		mov	r2, #0
 2405 15f6 1A70     		strb	r2, [r3, #0]
 644:../src/gps.c  **** 							break;
 2406              		.loc 1 644 0
 2407 15f8 15E0     		b	.L68
 2408              	.L70:
 645:../src/gps.c  **** 						}
 646:../src/gps.c  **** 						case GPS_NEXTDATA_DATACODE:
 647:../src/gps.c  **** 						case GPS_NEXTDATA_STATUS:
 648:../src/gps.c  **** 						case GPS_NEXTDATA_NS:
 649:../src/gps.c  **** 						case GPS_NEXTDATA_EW:
 650:../src/gps.c  **** 						case GPS_NEXTDATA_FIXVALID:
 651:../src/gps.c  **** 						case GPS_NEXTDATA_NUMSAT:
 652:../src/gps.c  **** 						case GPS_NEXTDATA_M1:
 653:../src/gps.c  **** 						case GPS_NEXTDATA_DATE:
 654:../src/gps.c  **** 						{
 655:../src/gps.c  **** 							// Reset
 656:../src/gps.c  **** 							GPS_ProcesState = GPS_WAITINGSTART;
 2409              		.loc 1 656 0
 2410 15fa 40F20003 		movw	r3, #:lower16:GPS_ProcesState
 2411 15fe C0F20003 		movt	r3, #:upper16:GPS_ProcesState
 2412 1602 4FF00002 		mov	r2, #0
 2413 1606 1A70     		strb	r2, [r3, #0]
 657:../src/gps.c  **** 							GPS_NextData = GPS_NEXTDATA_VOID;
 2414              		.loc 1 657 0
 2415 1608 40F20003 		movw	r3, #:lower16:GPS_NextData
 2416 160c C0F20003 		movt	r3, #:upper16:GPS_NextData
 2417 1610 4FF01502 		mov	r2, #21
 2418 1614 1A70     		strb	r2, [r3, #0]
 658:../src/gps.c  **** 							GPS_Digits_Count = 0;
 2419              		.loc 1 658 0
 2420 1616 40F20003 		movw	r3, #:lower16:GPS_Digits_Count
 2421 161a C0F20003 		movt	r3, #:upper16:GPS_Digits_Count
 2422 161e 4FF00002 		mov	r2, #0
 2423 1622 1A70     		strb	r2, [r3, #0]
 659:../src/gps.c  **** 							break;
 2424              		.loc 1 659 0
 2425 1624 00BF     		nop
 2426              	.L68:
 660:../src/gps.c  **** 						}
 661:../src/gps.c  **** 					}
 662:../src/gps.c  **** 					GPS_Digits[0] = 0;
 2427              		.loc 1 662 0
 2428 1626 40F20003 		movw	r3, #:lower16:GPS_Digits
 2429 162a C0F20003 		movt	r3, #:upper16:GPS_Digits
 2430 162e 4FF00002 		mov	r2, #0
 2431 1632 1A70     		strb	r2, [r3, #0]
 663:../src/gps.c  **** 					GPS_Digits[1] = 0;
 2432              		.loc 1 663 0
 2433 1634 40F20003 		movw	r3, #:lower16:GPS_Digits
 2434 1638 C0F20003 		movt	r3, #:upper16:GPS_Digits
 2435 163c 4FF00002 		mov	r2, #0
 2436 1640 5A70     		strb	r2, [r3, #1]
 664:../src/gps.c  **** 					GPS_Digits[2] = 0;
 2437              		.loc 1 664 0
 2438 1642 40F20003 		movw	r3, #:lower16:GPS_Digits
 2439 1646 C0F20003 		movt	r3, #:upper16:GPS_Digits
 2440 164a 4FF00002 		mov	r2, #0
 2441 164e 9A70     		strb	r2, [r3, #2]
 665:../src/gps.c  **** 					GPS_Digits[3] = 0;
 2442              		.loc 1 665 0
 2443 1650 40F20003 		movw	r3, #:lower16:GPS_Digits
 2444 1654 C0F20003 		movt	r3, #:upper16:GPS_Digits
 2445 1658 4FF00002 		mov	r2, #0
 2446 165c DA70     		strb	r2, [r3, #3]
 666:../src/gps.c  **** 				}
 667:../src/gps.c  **** 				else if(data == '$')
 668:../src/gps.c  **** 				{
 669:../src/gps.c  **** 					GPS_ProcesState = GPS_RECEIVE_NUMBER;
 670:../src/gps.c  **** 					GPS_NextData = GPS_NEXTDATA_DATACODE;
 671:../src/gps.c  **** 					// Go to next data
 672:../src/gps.c  **** 					GPS_Digits[0] = 0;
 673:../src/gps.c  **** 					GPS_Digits[1] = 0;
 674:../src/gps.c  **** 					GPS_Digits_Count = 0;
 675:../src/gps.c  **** 					GPSFLAG_CR_RECEIVED = 0;
 676:../src/gps.c  **** 				}
 677:../src/gps.c  **** 				else if(data == '*')
 678:../src/gps.c  **** 				{
 679:../src/gps.c  **** 					// Go to next data
 680:../src/gps.c  **** 					GPS_NextData = GPS_NEXTDATA_CHECKSUM;
 681:../src/gps.c  **** 					GPS_ProcesState = GPS_RECEIVE_NUMBER;
 682:../src/gps.c  **** 					GPS_Digits_Count = 0;
 683:../src/gps.c  **** 					// Save checksum
 684:../src/gps.c  **** 					GPS_Checksum_Save = GPS_Checksum;
 685:../src/gps.c  **** 				}
 686:../src/gps.c  **** 				else
 687:../src/gps.c  **** 				{
 688:../src/gps.c  **** 					temp = data - 48;
 689:../src/gps.c  **** 					GPS_DataTemp = GPS_DataTemp * 10;
 690:../src/gps.c  **** 					GPS_DataTemp += temp;
 691:../src/gps.c  **** 					GPS_DataTemp_Count++;
 692:../src/gps.c  **** 				}
 693:../src/gps.c  **** 				break;
 2447              		.loc 1 693 0
 2448 165e B2E0     		b	.L17
 2449              	.L67:
 667:../src/gps.c  **** 				else if(data == '$')
 2450              		.loc 1 667 0
 2451 1660 FB79     		ldrb	r3, [r7, #7]	@ zero_extendqisi2
 2452 1662 242B     		cmp	r3, #36
 2453 1664 2BD1     		bne	.L87
 669:../src/gps.c  **** 					GPS_ProcesState = GPS_RECEIVE_NUMBER;
 2454              		.loc 1 669 0
 2455 1666 40F20003 		movw	r3, #:lower16:GPS_ProcesState
 2456 166a C0F20003 		movt	r3, #:upper16:GPS_ProcesState
 2457 166e 4FF00102 		mov	r2, #1
 2458 1672 1A70     		strb	r2, [r3, #0]
 670:../src/gps.c  **** 					GPS_NextData = GPS_NEXTDATA_DATACODE;
 2459              		.loc 1 670 0
 2460 1674 40F20003 		movw	r3, #:lower16:GPS_NextData
 2461 1678 C0F20003 		movt	r3, #:upper16:GPS_NextData
 2462 167c 4FF01302 		mov	r2, #19
 2463 1680 1A70     		strb	r2, [r3, #0]
 672:../src/gps.c  **** 					GPS_Digits[0] = 0;
 2464              		.loc 1 672 0
 2465 1682 40F20003 		movw	r3, #:lower16:GPS_Digits
 2466 1686 C0F20003 		movt	r3, #:upper16:GPS_Digits
 2467 168a 4FF00002 		mov	r2, #0
 2468 168e 1A70     		strb	r2, [r3, #0]
 673:../src/gps.c  **** 					GPS_Digits[1] = 0;
 2469              		.loc 1 673 0
 2470 1690 40F20003 		movw	r3, #:lower16:GPS_Digits
 2471 1694 C0F20003 		movt	r3, #:upper16:GPS_Digits
 2472 1698 4FF00002 		mov	r2, #0
 2473 169c 5A70     		strb	r2, [r3, #1]
 674:../src/gps.c  **** 					GPS_Digits_Count = 0;
 2474              		.loc 1 674 0
 2475 169e 40F20003 		movw	r3, #:lower16:GPS_Digits_Count
 2476 16a2 C0F20003 		movt	r3, #:upper16:GPS_Digits_Count
 2477 16a6 4FF00002 		mov	r2, #0
 2478 16aa 1A70     		strb	r2, [r3, #0]
 675:../src/gps.c  **** 					GPSFLAG_CR_RECEIVED = 0;
 2479              		.loc 1 675 0
 2480 16ac 40F20003 		movw	r3, #:lower16:GPSFlag
 2481 16b0 C0F20003 		movt	r3, #:upper16:GPSFlag
 2482 16b4 1A78     		ldrb	r2, [r3, #0]
 2483 16b6 6FF34512 		bfc	r2, #5, #1
 2484 16ba 1A70     		strb	r2, [r3, #0]
 2485              		.loc 1 693 0
 2486 16bc 83E0     		b	.L17
 2487              	.L87:
 677:../src/gps.c  **** 				else if(data == '*')
 2488              		.loc 1 677 0
 2489 16be FB79     		ldrb	r3, [r7, #7]	@ zero_extendqisi2
 2490 16c0 2A2B     		cmp	r3, #42
 2491 16c2 1FD1     		bne	.L88
 680:../src/gps.c  **** 					GPS_NextData = GPS_NEXTDATA_CHECKSUM;
 2492              		.loc 1 680 0
 2493 16c4 40F20003 		movw	r3, #:lower16:GPS_NextData
 2494 16c8 C0F20003 		movt	r3, #:upper16:GPS_NextData
 2495 16cc 4FF01402 		mov	r2, #20
 2496 16d0 1A70     		strb	r2, [r3, #0]
 681:../src/gps.c  **** 					GPS_ProcesState = GPS_RECEIVE_NUMBER;
 2497              		.loc 1 681 0
 2498 16d2 40F20003 		movw	r3, #:lower16:GPS_ProcesState
 2499 16d6 C0F20003 		movt	r3, #:upper16:GPS_ProcesState
 2500 16da 4FF00102 		mov	r2, #1
 2501 16de 1A70     		strb	r2, [r3, #0]
 682:../src/gps.c  **** 					GPS_Digits_Count = 0;
 2502              		.loc 1 682 0
 2503 16e0 40F20003 		movw	r3, #:lower16:GPS_Digits_Count
 2504 16e4 C0F20003 		movt	r3, #:upper16:GPS_Digits_Count
 2505 16e8 4FF00002 		mov	r2, #0
 2506 16ec 1A70     		strb	r2, [r3, #0]
 684:../src/gps.c  **** 					GPS_Checksum_Save = GPS_Checksum;
 2507              		.loc 1 684 0
 2508 16ee 40F20003 		movw	r3, #:lower16:GPS_Checksum
 2509 16f2 C0F20003 		movt	r3, #:upper16:GPS_Checksum
 2510 16f6 1A78     		ldrb	r2, [r3, #0]	@ zero_extendqisi2
 2511 16f8 40F20003 		movw	r3, #:lower16:GPS_Checksum_Save
 2512 16fc C0F20003 		movt	r3, #:upper16:GPS_Checksum_Save
 2513 1700 1A70     		strb	r2, [r3, #0]
 2514              		.loc 1 693 0
 2515 1702 60E0     		b	.L17
 2516              	.L88:
 688:../src/gps.c  **** 					temp = data - 48;
 2517              		.loc 1 688 0
 2518 1704 FB79     		ldrb	r3, [r7, #7]	@ zero_extendqisi2
 2519 1706 9BB2     		uxth	r3, r3
 2520 1708 A3F13003 		sub	r3, r3, #48
 2521 170c FB81     		strh	r3, [r7, #14]	@ movhi
 689:../src/gps.c  **** 					GPS_DataTemp = GPS_DataTemp * 10;
 2522              		.loc 1 689 0
 2523 170e 40F20003 		movw	r3, #:lower16:GPS_DataTemp
 2524 1712 C0F20003 		movt	r3, #:upper16:GPS_DataTemp
 2525 1716 1B88     		ldrh	r3, [r3, #0]
 2526 1718 1A46     		mov	r2, r3	@ movhi
 2527 171a 4FEA8202 		lsl	r2, r2, #2
 2528 171e D318     		adds	r3, r2, r3
 2529 1720 4FEA4303 		lsl	r3, r3, #1
 2530 1724 9AB2     		uxth	r2, r3
 2531 1726 40F20003 		movw	r3, #:lower16:GPS_DataTemp
 2532 172a C0F20003 		movt	r3, #:upper16:GPS_DataTemp
 2533 172e 1A80     		strh	r2, [r3, #0]	@ movhi
 690:../src/gps.c  **** 					GPS_DataTemp += temp;
 2534              		.loc 1 690 0
 2535 1730 40F20003 		movw	r3, #:lower16:GPS_DataTemp
 2536 1734 C0F20003 		movt	r3, #:upper16:GPS_DataTemp
 2537 1738 1A88     		ldrh	r2, [r3, #0]
 2538 173a FB89     		ldrh	r3, [r7, #14]	@ movhi
 2539 173c D318     		adds	r3, r2, r3
 2540 173e 9AB2     		uxth	r2, r3
 2541 1740 40F20003 		movw	r3, #:lower16:GPS_DataTemp
 2542 1744 C0F20003 		movt	r3, #:upper16:GPS_DataTemp
 2543 1748 1A80     		strh	r2, [r3, #0]	@ movhi
 691:../src/gps.c  **** 					GPS_DataTemp_Count++;
 2544              		.loc 1 691 0
 2545 174a 40F20003 		movw	r3, #:lower16:GPS_DataTemp_Count
 2546 174e C0F20003 		movt	r3, #:upper16:GPS_DataTemp_Count
 2547 1752 1B78     		ldrb	r3, [r3, #0]	@ zero_extendqisi2
 2548 1754 03F10103 		add	r3, r3, #1
 2549 1758 DAB2     		uxtb	r2, r3
 2550 175a 40F20003 		movw	r3, #:lower16:GPS_DataTemp_Count
 2551 175e C0F20003 		movt	r3, #:upper16:GPS_DataTemp_Count
 2552 1762 1A70     		strb	r2, [r3, #0]
 2553              		.loc 1 693 0
 2554 1764 2FE0     		b	.L17
 2555              	.L22:
 694:../src/gps.c  **** 			}
 695:../src/gps.c  **** 			case GPS_WAITFOREND:
 696:../src/gps.c  **** 			{
 697:../src/gps.c  **** 				if(data == '*')
 2556              		.loc 1 697 0
 2557 1766 FB79     		ldrb	r3, [r7, #7]	@ zero_extendqisi2
 2558 1768 2A2B     		cmp	r3, #42
 2559 176a 2BD1     		bne	.L93
 698:../src/gps.c  **** 				{
 699:../src/gps.c  **** 					// Go to next data
 700:../src/gps.c  **** 					GPS_NextData = GPS_NEXTDATA_CHECKSUM;
 2560              		.loc 1 700 0
 2561 176c 40F20003 		movw	r3, #:lower16:GPS_NextData
 2562 1770 C0F20003 		movt	r3, #:upper16:GPS_NextData
 2563 1774 4FF01402 		mov	r2, #20
 2564 1778 1A70     		strb	r2, [r3, #0]
 701:../src/gps.c  **** 					GPS_ProcesState = GPS_RECEIVE_NUMBER;
 2565              		.loc 1 701 0
 2566 177a 40F20003 		movw	r3, #:lower16:GPS_ProcesState
 2567 177e C0F20003 		movt	r3, #:upper16:GPS_ProcesState
 2568 1782 4FF00102 		mov	r2, #1
 2569 1786 1A70     		strb	r2, [r3, #0]
 702:../src/gps.c  **** 					GPS_Digits_Count = 0;
 2570              		.loc 1 702 0
 2571 1788 40F20003 		movw	r3, #:lower16:GPS_Digits_Count
 2572 178c C0F20003 		movt	r3, #:upper16:GPS_Digits_Count
 2573 1790 4FF00002 		mov	r2, #0
 2574 1794 1A70     		strb	r2, [r3, #0]
 703:../src/gps.c  **** 					// Save checksum
 704:../src/gps.c  **** 					GPS_Checksum_Save = GPS_Checksum;
 2575              		.loc 1 704 0
 2576 1796 40F20003 		movw	r3, #:lower16:GPS_Checksum
 2577 179a C0F20003 		movt	r3, #:upper16:GPS_Checksum
 2578 179e 1A78     		ldrb	r2, [r3, #0]	@ zero_extendqisi2
 2579 17a0 40F20003 		movw	r3, #:lower16:GPS_Checksum_Save
 2580 17a4 C0F20003 		movt	r3, #:upper16:GPS_Checksum_Save
 2581 17a8 1A70     		strb	r2, [r3, #0]
 705:../src/gps.c  **** 				}
 706:../src/gps.c  **** 				break;
 2582              		.loc 1 706 0
 2583 17aa 0BE0     		b	.L93
 2584              	.L18:
 707:../src/gps.c  **** 			}
 708:../src/gps.c  **** 			default:
 709:../src/gps.c  **** 			{
 710:../src/gps.c  **** 				GPS_ProcesState = GPS_WAITINGSTART;
 2585              		.loc 1 710 0
 2586 17ac 40F20003 		movw	r3, #:lower16:GPS_ProcesState
 2587 17b0 C0F20003 		movt	r3, #:upper16:GPS_ProcesState
 2588 17b4 4FF00002 		mov	r2, #0
 2589 17b8 1A70     		strb	r2, [r3, #0]
 711:../src/gps.c  **** 				break;
 2590              		.loc 1 711 0
 2591 17ba 04E0     		b	.L17
 2592              	.L91:
 173:../src/gps.c  **** 				break;
 2593              		.loc 1 173 0
 2594 17bc 00BF     		nop
 2595 17be 02E0     		b	.L17
 2596              	.L92:
 493:../src/gps.c  **** 				break;
 2597              		.loc 1 493 0
 2598 17c0 00BF     		nop
 2599 17c2 00E0     		b	.L17
 2600              	.L93:
 706:../src/gps.c  **** 				break;
 2601              		.loc 1 706 0
 2602 17c4 00BF     		nop
 2603              	.L17:
 712:../src/gps.c  **** 			}
 713:../src/gps.c  **** 		}
 714:../src/gps.c  **** 	}
 715:../src/gps.c  **** 	// Calculate checksum
 716:../src/gps.c  **** 	if(GPSFLAG_CHECKSUM_RESET)
 2604              		.loc 1 716 0
 2605 17c6 40F20003 		movw	r3, #:lower16:GPSFlag
 2606 17ca C0F20003 		movt	r3, #:upper16:GPSFlag
 2607 17ce 1B78     		ldrb	r3, [r3, #0]	@ zero_extendqisi2
 2608 17d0 03F04003 		and	r3, r3, #64
 2609 17d4 DBB2     		uxtb	r3, r3
 2610 17d6 002B     		cmp	r3, #0
 2611 17d8 0DD0     		beq	.L90
 717:../src/gps.c  **** 	{
 718:../src/gps.c  **** 		GPSFLAG_CHECKSUM_RESET = 0;
 2612              		.loc 1 718 0
 2613 17da 40F20003 		movw	r3, #:lower16:GPSFlag
 2614 17de C0F20003 		movt	r3, #:upper16:GPSFlag
 2615 17e2 1A78     		ldrb	r2, [r3, #0]
 2616 17e4 6FF38612 		bfc	r2, #6, #1
 2617 17e8 1A70     		strb	r2, [r3, #0]
 719:../src/gps.c  **** 		GPS_Checksum = data;
 2618              		.loc 1 719 0
 2619 17ea 40F20003 		movw	r3, #:lower16:GPS_Checksum
 2620 17ee C0F20003 		movt	r3, #:upper16:GPS_Checksum
 2621 17f2 FA79     		ldrb	r2, [r7, #7]
 2622 17f4 1A70     		strb	r2, [r3, #0]
 2623              	.L90:
 720:../src/gps.c  **** 	}
 721:../src/gps.c  **** 	GPS_Checksum = GPS_Checksum^data;
 2624              		.loc 1 721 0
 2625 17f6 40F20003 		movw	r3, #:lower16:GPS_Checksum
 2626 17fa C0F20003 		movt	r3, #:upper16:GPS_Checksum
 2627 17fe 1A78     		ldrb	r2, [r3, #0]	@ zero_extendqisi2
 2628 1800 FB79     		ldrb	r3, [r7, #7]
 2629 1802 5340     		eors	r3, r3, r2
 2630 1804 DAB2     		uxtb	r2, r3
 2631 1806 40F20003 		movw	r3, #:lower16:GPS_Checksum
 2632 180a C0F20003 		movt	r3, #:upper16:GPS_Checksum
 2633 180e 1A70     		strb	r2, [r3, #0]
 722:../src/gps.c  **** }
 2634              		.loc 1 722 0
 2635 1810 07F11407 		add	r7, r7, #20
 2636 1814 BD46     		mov	sp, r7
 2637 1816 90BD     		pop	{r4, r7, pc}
 2638              		.cfi_endproc
 2639              	.LFE115:
 2641              	.Letext0:
 2642              		.file 2 "c:\\program files (x86)\\codesourcery\\eabi\\bin\\../lib/gcc/arm-none-eabi/4.6.3/../../..
 2643              		.file 3 "D:\\Jure\\Projekti\\Git\\AutoPilot\\AutoPilot_SW\\Libraries\\Device\\STM32F4xx\\Include/s
 2644              		.file 4 "../src/var.h"
 2645              		.file 5 "D:\\Jure\\Projekti\\Git\\AutoPilot\\AutoPilot_SW\\Libraries\\CMSIS\\Include/core_cm4.h"
 2646              		.file 6 "../src/modbus.h"